cnumpy.core.multiarray
_reconstruct
p1
(cnumpy
ndarray
p2
(I0
tS'b'
tRp3
(I1
(L93L
tcnumpy
dtype
p4
(S'f8'
I0
I1
tRp5
(I3
S'<'
NNNI-1
I-1
I0
tbI00
S'v\xaa\xb4u&B\xd6?\xb3\x93\xc7QT\x86\xe1?\x05OEXM\xd1\xe5?\x19\xfb\x0c\x17[\x1d\xe2?\xfe\xa7ws\x9d\xe6\xe8?\x11\x1c29#v\xe8?h\xb5\xce:\x1f\xd4\xe4?\xdcV_7\xff\xd1\xf0?\xe6\xd6,\xa3\x90c\xdc?\\L\xf3\x1cIt\xf8?,R\x8d\xbaM\x11\xee?\x9f\x99\x15k\xc5\x0f\xec?e\xb32\xe8"\'\xfa?\xd0+N\x1ew<\xe3?\\L\xf3\x1cIt\xf8?\xbe3\x0f\xb6\xb8\xba\xeb?B\xd0\xd1\x14\x11\xad\xea?\x0b\x95\xf5,}\x16\xeb?\xc6d&O?\xdd\xfc?\x9e\xac+z\xdf\xd6\xf9?6\xfc\x9e\x8c@\xe4\xf7?\xcb\x8d\xc7\x00\x8f \xf8?^\x8b\x05\xdc\xb1\xfc\xeb?%R\x0fH\xbf?\xf6?\xed\x8d$%\xf5T\xef?N\x7fnC6L\xff?\x1b\xab\xdd\xfa\xbd\x89\x00@\x0b\x95\xf5,}\x16\xeb?\x04\xc0\x0e|\x88-\xf5?f\xdfv.\xd4\xb3\xfd?\xb6w\x93!wB\xfc?\x8e*\xec\x00t\x17\xe8?\xc6]5\x1e&\xcc\xf8?\xb7I\xbb\xfe\xec\x9f\xf6?\xe6\x00OZ\xcf\xe2\xf8?\x1d\x8bSN\xe4\xa7\xfe?\x99|%\x81~M\xe6?q\x8eK8-\xc1\xf6?f@R/\x03_\xf7??\xb6\n\x86$\x06\xfd?8\x11w\xc1\xac\x9f\xf8?~\x03\xbf\x9cc\xf3\xf5?f"\'\x86\xca\x11\xf4?]\xfc\x9c\x11\xd9\x89\xf8?\xd12%\xb6\xa8X\xf9?\xa5G\xa3-\t\xe2\xfd?\xdb\x8e;\xdc\x9d\x89\x01@\xd12%\xb6\xa8X\xf9?\xb60\xdb\x8e\'\xbd\xf7?6\x0f\x03c,\x8e\xfc?\xfe$\x97\xc8^"\xf1?5\xa8\xb8\xd2t@\xf9?\xdc\xda\xc4\xe5\xddZ\xfd?F\x90&\xba\x93\xff\xf2?\xcf\xa0Fo1{\xfa?\x9e\xac+z\xdf\xd6\xf9?\xa507\x1c\xc4\x10\xfb?\x1d\x8bSN\xe4\xa7\xfe?]\xfc\x9c\x11\xd9\x89\xf8?e\xb32\xe8"\'\xfa?\x1b\x95\xbbWe\xc3\x06@m\xe8\x1d-\x1c+\xe7?7;G\xa9\xdd\x1a\xf0?\xb5\xf12r\x8a\x86\xff?\xb4\x86\xe0\xa6y\x11\xfe?5\xa8\xb8\xd2t@\xf9?N\x7fnC6L\xff?N\x7fnC6L\xff?\x96\xe5\x92U@0\xfb?8\x11w\xc1\xac\x9f\xf8?KQ\xf1\xfe$i\x02@\xb5KO\xdb\xc5\xb5\xf8?\xb6\x8e\xff2\xbc\x13\xff?\xcf\xb4=\x91t\xbc\x01@e\xb32\xe8"\'\xfa?F\x00\x9e\xcbMP\xfb?\xdbv\x95\x9b\x98\xaf\x00@6?O\xe46B\xfe?\xb6\x8e\xff2\xbc\x13\xff?\x1aR\x0b\x00oe\x00@Z\x84\xcf\xc1\xe7+\x01@\x1b\xab\xdd\xfa\xbd\x89\x00@5*w\xaf\xca\x86\xfd?\xf5\x1aNL\xc9\x1d\xfc?3{\xf1\x9f\x8cB\x00@\xdb\x8e;\xdc\x9d\x89\x01@\x97,\xce\xa8\xeag\xfc?,R\x8d\xbaM\x11\xee?\xc6nN\x8e\x98\xd0\xf7?\xc86N,\xb5:\xf7?\xb4\x86\xe0\xa6y\x11\xfe?e\xb32\xe8"\'\xfa?sj\x05\n\x0f\xab\x02@'
tb.(lp1
(S't # 0 * 1257\n'
S'v 0 4\nv 1 11\n'
S'v 1 11\n'
S'e 0 1 0\n'
S'e 0 1 0\n'
S' {0:2 1:1 3:1 5:2 6:1 10:1 13:1 16:2 19:1 20:2 21:1 23:1 25:1 28:2 29:3 38:1 39:1 41:5 43:7 49:1 50:3 52:4 53:3 56:7 57:9 58:1 59:3 62:1 63:1 66:2 67:3 74:1 80:1 81:1 84:2 87:1 88:5 90:1 92:2 94:5 96:1 97:1 98:2 99:3 100:5 107:3 109:1 110:2 112:5 114:2 115:3 118:4 123:1 124:2 125:8 128:2 129:3 132:1 133:1 134:4 136:4 138:2 143:2 144:3 146:2 147:4 149:5 153:1 161:2 162:1 163:1 166:1 168:1 169:1 170:7 173:1 175:3 176:1 178:6 179:1 180:1 181:1 183:1 184:2 185:3 186:3 189:1 190:2 193:1 194:2 195:1 197:1 199:2 200:2 201:4 203:2 206:2 209:4 213:1 214:11 215:2 216:4 217:6 219:1 221:2 222:2 227:6 230:3 231:8 232:4 233:1 234:1 237:3 239:1 240:1 242:2 248:2 251:1 252:1 254:3 255:1 258:1 259:3 260:2 262:2 263:3 266:1 267:1 270:1 271:1 272:3 273:7 274:3 277:1 279:6 281:3 282:1 287:2 288:1 289:3 290:1 291:2 297:1 300:4 304:1 305:1 306:1 308:2 309:3 310:2 313:1 314:1 320:4 322:1 325:2 326:3 327:4 329:8 331:3 332:3 338:3 339:2 340:3 342:2 343:3 344:3 345:1 348:1 349:1 352:3 354:5 356:5 360:6 361:2 363:1 364:1 366:1 367:4 368:1 369:1 370:2 373:3 374:1 378:3 379:4 381:3 385:1 387:3 390:1 391:4 397:3 398:2 399:2 400:1 401:3 404:1 405:1 407:3 408:9 410:3 411:2 412:3 415:2 421:3 428:4 429:2 433:1 435:3 437:2 438:2 440:1 444:2 446:9 447:4 448:4 449:10 457:2 459:2 460:2 461:4 463:1 465:2 467:1 469:1 470:2 471:3 478:2 480:3 485:7 486:4 487:1 488:2 490:2 492:2 496:2 497:5 498:1 499:2 500:6 501:5 502:4 504:2 508:1 510:4 511:3 512:2 513:1 519:1 520:3 521:3 522:1 524:1 526:1 530:5 534:3 535:2 538:1 542:2 543:5 545:3 547:1 549:4 552:6 556:4 557:4 558:1 559:1 562:1 563:2 565:2 566:1 568:2 569:2 571:1 572:3 574:1 575:2 576:5 578:3 580:1 581:5 582:1 586:4 588:1 589:2 590:3 592:1 593:3 594:3 595:2 596:1 597:4 600:1 602:3 605:3 608:4 612:1 614:5 616:6 617:3 618:6 619:2 620:1 622:3 623:1 626:6 627:7 628:1 630:9 632:1 634:1 640:4 642:6 645:1 646:1 648:3 650:2 652:2 654:6 657:2 659:1 661:1 662:4 664:3 666:7 667:1 668:1 670:2 671:1 672:1 674:2 678:3 680:1 681:1 683:3 686:2 687:3 689:5 690:1 692:4 693:1 694:3 695:1 700:5 701:5 705:11 706:1 710:1 711:7 714:1 715:2 716:1 717:1 720:2 721:1 723:2 725:1 726:1 727:4 728:6 729:9 730:3 731:1 733:2 734:2 735:3 736:2 737:1 739:5 743:2 744:3 745:3 747:1 749:1 750:3 751:1 752:1 754:2 755:1 760:3 763:3 765:9 766:2 767:3 768:2 770:2 771:2 772:4 774:7 778:1 779:3 782:1 784:2 785:2 787:2 790:5 792:1 795:3 796:5 797:1 798:2 799:3 800:2 801:12 805:1 806:3 815:5 816:3 817:5 818:1 819:1 821:1 822:2 824:1 825:2 826:2 827:1 828:1 831:1 836:2 837:1 838:1 845:2 848:7 850:2 851:3 853:1 857:1 858:3 861:4 862:6 863:3 864:1 868:2 869:2 872:2 874:1 875:3 876:2 877:3 880:1 883:1 884:2 887:1 888:6 889:1 895:5 896:4 899:1 900:5 902:2 904:1 905:1 909:5 910:1 918:3 919:6 920:2 923:2 924:3 925:4 928:1 929:1 933:1 934:3 937:1 939:2 941:1 944:3 947:1 948:2 950:2 953:1 954:1 955:1 956:2 957:1 958:1 960:2 963:2 965:2 971:1 972:5 974:2 976:1 978:3 980:1 982:5 983:3 984:2 985:3 988:3 989:1 992:2 994:5 995:3 997:1 999:1 1001:2 1002:2 1003:3 1004:5 1005:1 1008:1 1009:3 1010:1 1011:2 1012:2 1016:2 1017:4 1018:6 1019:1 1021:3 1022:2 1023:1 1027:1 1028:1 1031:2 1032:2 1036:1 1037:1 1039:1 1040:2 1042:2 1047:1 1048:1 1050:2 1051:2 1053:4 1054:1 1055:2 1056:8 1058:1 1059:5 1061:2 1063:1 1064:2 1067:1 1070:1 1071:3 1074:5 1075:4 1077:3 1083:1 1085:3 1086:2 1087:1 1089:5 1091:1 1092:3 1097:1 1099:1 1101:2 1104:1 1106:3 1107:1 1108:1 1113:2 1117:1 1118:1 1119:3 1121:3 1124:1 1125:2 1126:2 1128:4 1130:5 1132:1 1136:6 1139:1 1142:2 1143:1 1144:2 1145:9 1147:3 1150:2 1151:1 1153:2 1155:2 1156:2 1157:1 1159:2 1162:2 1164:2 1170:3 1171:2 1172:2 1174:2 1175:1 1177:1 1184:1 1186:1 1188:1 1192:4 1193:1 1198:2 1199:1 1201:1 1204:2 1205:1 1207:11 1212:8 1213:1 1218:3 1221:1 1223:2 1224:5 1228:5 1229:9 1230:4 1231:4 1232:5 1233:1 1235:3 1236:1 1237:2 1238:1 1245:2 1246:1 1248:1 1252:1 1253:6 1254:1 1255:2 1258:4 1260:2 1263:1 1265:2 1266:6 1268:2 1269:1 1270:2 1272:5 1273:2 1275:4 1277:1 1279:1 1280:2 1282:2 1283:4 1286:1 1287:4 1290:2 1291:2 1293:4 1295:1 1296:3 1298:3 1300:4 1305:1 1308:1 1311:4 1312:1 1313:4 1315:4 1316:3 1319:11 1320:4 1322:2 1323:1 1329:1 1330:1 1331:4 1334:1 1335:4 1336:4 1337:6 1338:2 1339:1 1340:1 1342:2 1344:1 1345:1 1348:4 1349:1 1350:1 1351:1 1352:8 1353:1 1354:1 1356:2 1357:1 1359:3 1361:1 1362:3 1367:4 1368:1 1373:2 1375:1 1376:3 1379:1 1382:3 1383:2 1384:1 1388:4 1389:3 1391:2 1392:6 1394:1 1396:2 1397:1 1399:1 1402:1 1403:3 1405:2 1406:3 1412:8 1413:1 1414:5 1419:8 1427:2 1429:6 1431:1 1435:1 1437:3 1440:4 1441:1 1442:1 1443:2 1446:2 1448:2 1452:2 1453:2 1454:1 1456:5 1461:2 1462:1 1463:1 1465:3 1467:5 1470:1 1471:2 1473:1 1474:3 1475:2 1476:1 1477:1 1480:2 1481:5 1482:1 1483:1 1484:1 1485:1 1486:3 1487:9 1496:2 1497:1 1499:3 1501:5 1502:1 1503:1 1506:2 1507:4 1511:2 1514:1 1515:1 1516:5 1517:2 1519:2 1521:2 1529:1 1530:1 1537:1 1539:1 1540:1 1542:1 1544:1 1547:1 1556:1 1559:2 1561:1 1563:6 1568:1 1570:1 1573:1 1574:1 1577:2 1581:1 1583:1 1585:2 1589:1 1590:3 1595:3 1596:3 1597:1 1598:2 1599:1 1602:1 1606:1 1609:2 1613:1 1615:1 1617:1 1618:1 1619:1 1628:1 1630:2 1631:1 1637:3 1639:1 1641:1 1646:1 1648:1 1649:1 1658:1 1660:1 1663:1 1666:1 1667:1 1672:2 1673:1 1675:1 1676:1 1677:1 1678:1 1680:1 1681:1 1687:1 1688:1 1689:1 1690:1 1698:3 1704:1 1706:1 1707:1 1711:1 1715:1 1716:3 1718:1 1720:1 1721:1 1722:1 1724:1 1726:1 1729:1 1731:1 1733:1 1734:1 1737:2 1744:1 1745:1 1748:2 1751:1 1753:1 1755:1 1756:3 1757:1 1762:1 1765:1 1766:1 1769:1 1771:1 1774:1 1777:1 1778:2 1779:2 1783:1 1787:1 1789:1 1791:1 1794:1 1795:1 1799:1 1802:2 1803:1 1811:2 1815:1 1817:1 1823:1 1824:2 1825:1 1827:1 1828:1 1829:1 1831:1 1832:1 1835:1 1836:2 1838:2 1844:2 1847:1 1850:1 1853:1 1856:2 1860:1 1861:1 1863:1 1865:1 1866:1 1867:1 1868:1 1872:1 1874:1 1875:1 1877:1 1879:1 1880:2 1881:1 1889:1 1890:1 1893:1 1896:2 1902:1 1903:1 1904:3 1910:1 1911:2 1915:4 1916:2 1919:2 1920:1 1923:1 1927:2 1928:1 1930:1 1933:1 1934:1 1936:1 1942:1 1944:1 1952:1 1953:1 1958:1 1960:2 1961:1 1964:1 1967:1 1968:1 1971:1 1976:1 1979:1 1980:1 1983:1 1985:1 1989:1 1991:1 1997:1 1999:2 2001:1 2005:1 2007:1 2008:1 2012:1 2016:1 2019:1 2020:1 2023:1 2024:3 2027:1 2028:1 2030:6 2031:1 2032:1 2036:1 2038:2 2039:1 2042:1 2043:1 2048:1 2049:1 2050:1 2051:1 2053:1 2054:1 2055:1 2056:1 2059:1 2060:1 2064:6 2065:1 2066:2 2067:1 2070:1 2071:1 2075:2 2078:1 2080:1 2084:2 2087:1 2093:1 2097:1 2101:1 2102:1 2104:1 2105:1 2107:1 2109:2 2111:2 2117:1 2121:1 2125:1 2130:1 2131:1 2133:1 2134:1 2136:1 2138:2 2139:1 2141:1 2142:1 2143:1 2144:3 2147:1 2154:1 2163:2 2166:1 2168:1 2171:1 2176:1 2177:1 2178:1 2179:1 2180:1 2182:1 2187:1 2190:2 2195:1 2197:2 2202:1 2204:2 2205:4 2206:1 2210:4 2213:1 2216:1 2217:1 2222:1 2223:1 2228:2 2230:1 2231:1 2232:1 2233:1 2235:1 2240:1 2241:1 2243:1 2244:1 2248:1 2249:2 2251:2 2252:1 2258:2 2262:1 2263:1 2265:1 2268:1 2269:2 2272:1 2274:1 2275:3 2281:1 2286:1 2289:1 2294:1 2297:2 2300:2 2301:2 2303:1 2311:1 2312:9 2313:1 2314:1 2315:2 2317:4 2320:1 2325:1 2326:1 2329:1 2331:1 2333:1 2335:1 2343:1 2346:1 2348:1 2352:1 2355:1 2356:1 2359:2 2363:1 2368:1 2369:1 2370:2 2372:1 2375:1 2379:1 2380:1 2381:1 2382:1 2383:1 2390:1 2391:1 2392:1 2393:1 2396:1 2399:1 2400:1 2402:1 2405:1 2406:1 2410:2 2411:1 2413:1 2415:1 2416:1 2417:1 2418:2 2422:1 2424:1 2428:1 2431:1 2433:1 2435:1 2440:3 2441:1 2445:2 2446:1 2448:1 2452:1 2453:1 2459:2 2460:2 2462:2 2464:1 2465:1 2466:1 2471:1 2472:1 2475:1 2477:1 2478:1 2479:1 2480:2 2483:1 2486:1 2489:1 2490:1 2491:1 2492:1 2494:3 2496:1 2499:1 2503:1 2504:1 2505:1 2506:1 2513:1 2524:1 2525:1 2528:3 2529:1 2533:1 2535:1 2538:1 2540:3 2546:2 2547:1 2551:1 2555:2 2558:1 2559:3 2562:1 2564:1 2566:1 2570:1 2571:1 2578:1 2580:1 2581:2 2585:1 2597:3 2600:1 2602:1 2603:2 2605:1 2606:1 2608:1 2609:1 2611:3 2614:1 2617:1 2618:1 2619:2 2620:1 2621:4 2623:2 2624:3 2627:1 2628:1 2630:1 2633:1 2635:1 2640:3 2642:1 2643:1 2645:1 2646:1 2653:2 2654:1 2655:1 2656:1 2671:1 2674:1 2675:1 2678:1 2679:2 2683:1 2685:1 2686:1 2688:1 2692:1 2693:1 2694:2 2698:2 2700:1 2705:1 2707:1 2710:1 2713:1 2723:1 2724:1 2726:1 2728:1 2729:1 2730:1 2731:1 2735:1 2737:1 2738:1 2739:1 2741:1 2743:1 2745:1 2748:1 2749:1 2753:1 2755:2 2757:1 2760:2 2761:1 2765:2 2766:4 2772:1 2773:1 2776:1 2777:1 2778:1 2780:2 2781:1 2782:1 2784:1 2789:2 2790:1 2791:1 2795:1 2796:1 2797:1}\n'
tp2
a(S't # 1 * 793\n'
S'v 0 4\nv 1 4\n'
S'v 1 4\n'
S'e 0 1 0\n'
S'e 0 1 0\n'
S' {0:4 3:2 7:2 8:18 11:8 13:4 14:6 15:6 19:2 20:2 21:8 23:4 28:2 35:2 39:2 42:4 43:6 46:4 50:2 56:4 57:6 58:2 59:2 62:2 63:2 66:4 67:8 68:12 70:6 71:2 74:2 76:4 80:2 84:8 85:2 86:6 88:4 89:8 93:6 94:2 96:6 97:2 98:2 103:6 105:6 106:18 107:4 108:4 109:4 110:12 111:2 112:6 115:2 119:4 122:6 125:2 129:2 132:2 136:8 140:10 143:2 144:2 146:2 147:8 148:4 149:12 150:4 153:2 160:6 166:2 168:8 169:2 170:32 175:2 178:2 179:4 180:2 181:2 182:10 183:2 185:2 194:4 198:4 199:2 200:8 201:2 202:14 203:2 209:6 214:10 216:4 217:8 222:2 227:4 229:14 230:2 231:4 232:8 236:6 237:6 239:4 240:2 245:2 246:2 247:2 249:6 252:2 254:2 258:2 259:4 263:8 267:2 270:4 272:4 273:4 274:8 275:4 276:16 277:2 279:10 280:2 281:4 282:2 283:10 288:4 290:2 296:8 300:4 304:12 305:2 306:6 309:6 310:4 313:4 314:2 317:6 320:4 322:4 327:2 329:16 330:10 332:20 337:8 339:2 341:6 342:2 344:10 346:4 348:4 350:2 354:2 356:6 360:2 361:2 363:2 364:2 365:4 368:2 369:2 373:2 374:8 376:2 379:10 383:8 385:2 390:6 394:10 395:8 397:8 398:2 399:2 404:4 405:4 412:2 415:6 417:12 418:10 419:8 427:4 433:4 435:16 438:2 440:2 446:20 447:2 449:22 451:2 452:2 453:24 460:2 461:2 463:4 466:2 469:4 470:4 472:2 476:6 480:2 481:6 485:2 486:2 490:2 499:4 500:2 501:4 510:4 511:6 512:20 513:2 514:6 517:4 521:2 524:2 530:4 534:2 536:16 544:2 546:8 547:2 552:4 555:20 556:6 557:10 558:4 564:4 568:2 569:2 571:6 572:2 574:2 576:4 579:6 581:6 582:2 586:4 588:4 593:14 595:2 596:2 597:4 600:2 601:6 602:2 607:6 608:2 610:2 613:2 614:4 616:6 617:4 618:4 620:4 623:4 625:4 626:4 627:8 628:2 630:4 640:4 642:4 646:4 647:2 648:2 649:10 650:10 651:2 654:4 658:6 659:2 662:4 663:6 664:2 666:2 667:2 670:2 671:4 672:6 674:6 679:4 680:2 681:2 682:12 687:6 689:8 690:6 693:2 694:2 701:2 705:16 710:2 713:6 714:4 716:2 717:4 718:2 719:10 720:2 721:4 723:4 725:4 726:2 728:4 729:12 732:6 733:2 734:4 736:2 737:2 739:2 740:8 741:2 742:2 743:2 745:4 747:2 748:6 753:4 757:2 759:4 760:2 763:4 764:2 765:26 766:6 767:2 768:4 770:4 771:2 774:8 780:6 782:2 783:8 784:2 785:2 786:4 788:6 790:2 796:2 799:4 801:6 802:4 803:8 805:2 806:2 810:8 811:2 812:2 815:2 817:10 818:2 821:2 825:2 826:2 835:4 836:4 838:2 841:14 843:2 845:4 847:6 848:8 851:2 852:6 854:12 855:16 861:4 862:10 863:2 866:6 867:18 868:6 871:4 872:4 873:4 876:2 877:4 880:2 887:2 888:6 889:4 890:4 894:2 896:4 899:6 900:12 902:2 905:2 909:2 910:2 911:6 919:2 920:2 925:2 928:4 930:6 933:4 937:2 941:4 943:2 947:6 953:2 954:2 955:2 960:4 964:6 969:16 971:2 972:4 974:2 976:16 980:2 982:2 983:6 985:4 990:6 992:2 994:12 998:2 1002:4 1003:2 1004:6 1008:2 1009:2 1010:4 1012:4 1016:2 1017:2 1018:8 1019:2 1021:4 1022:2 1023:2 1027:4 1036:4 1039:22 1040:6 1041:8 1042:6 1045:6 1046:2 1047:2 1053:2 1055:2 1056:6 1057:6 1059:6 1061:2 1062:4 1063:2 1064:2 1067:4 1070:6 1071:2 1072:6 1074:2 1075:10 1080:4 1082:10 1083:2 1085:4 1086:2 1089:10 1097:2 1099:2 1101:2 1102:14 1103:6 1104:2 1105:4 1106:4 1117:6 1119:2 1121:2 1124:2 1125:2 1126:2 1128:2 1130:4 1132:4 1134:2 1136:6 1139:2 1145:18 1150:2 1155:4 1156:2 1157:2 1158:2 1162:2 1164:2 1167:2 1171:4 1172:2 1175:2 1177:4 1178:6 1180:6 1184:2 1185:6 1187:2 1188:2 1191:2 1192:4 1193:6 1196:8 1201:4 1205:2 1206:8 1207:12 1208:16 1212:10 1213:6 1221:4 1222:4 1224:2 1229:2 1230:6 1232:6 1236:10 1237:2 1238:4 1246:2 1247:2 1252:4 1253:6 1255:2 1258:6 1265:2 1266:8 1268:6 1270:2 1272:6 1273:6 1277:2 1281:6 1283:2 1285:2 1287:2 1290:2 1292:2 1293:8 1295:2 1298:2 1300:4 1302:4 1304:2 1305:2 1311:14 1313:4 1315:10 1316:2 1319:4 1320:8 1323:8 1328:14 1329:2 1331:4 1334:2 1336:6 1338:2 1339:4 1341:6 1344:10 1346:4 1348:4 1351:6 1352:4 1353:6 1354:2 1362:2 1363:4 1366:14 1368:2 1371:4 1372:8 1375:2 1376:4 1377:2 1382:2 1383:2 1384:2 1387:8 1388:6 1389:2 1392:4 1396:2 1397:2 1400:6 1403:2 1407:6 1412:2 1418:8 1419:10 1426:8 1427:2 1429:2 1431:4 1435:4 1436:4 1437:2 1438:6 1440:4 1441:2 1443:6 1446:4 1448:4 1449:10 1450:6 1453:4 1456:10 1461:10 1462:10 1466:2 1468:2 1470:2 1471:16 1473:2 1474:2 1475:4 1477:2 1478:2 1479:16 1482:2 1483:6 1484:2 1485:4 1487:6 1493:6 1496:2 1497:2 1501:4 1502:2 1503:4 1507:2 1509:2 1511:2 1514:2 1534:2 1537:2 1546:2 1559:2 1561:2 1563:4 1568:2 1570:4 1577:2 1580:2 1593:6 1605:2 1613:4 1629:2 1641:2 1656:2 1658:2 1667:2 1672:2 1677:6 1680:6 1681:2 1684:4 1687:2 1703:2 1716:4 1719:4 1725:2 1731:2 1739:4 1745:2 1747:2 1748:2 1750:2 1776:2 1778:2 1793:2 1794:2 1804:2 1811:2 1836:2 1838:2 1844:2 1864:2 1866:4 1892:4 1904:4 1908:4 1919:2 1920:2 1930:10 1944:2 1957:12 1959:8 1962:2 1964:2 1970:2 1987:2 1990:2 2020:2 2024:4 2026:10 2031:2 2038:2 2049:4 2064:10 2065:2 2072:2 2103:2 2117:2 2124:2 2130:2 2133:2 2134:2 2141:2 2142:2 2158:4 2163:2 2166:2 2168:6 2176:2 2188:4 2205:2 2210:2 2211:2 2236:4 2248:2 2249:2 2251:4 2258:2 2274:2 2280:2 2281:2 2301:2 2311:2 2314:4 2335:2 2343:6 2351:2 2357:2 2359:2 2391:2 2403:8 2410:2 2415:2 2417:4 2431:2 2435:2 2439:2 2443:2 2450:2 2454:2 2480:4 2484:2 2489:2 2495:4 2505:2 2522:2 2545:2 2555:2 2558:4 2559:6 2570:2 2576:6 2597:6 2603:2 2611:8 2618:6 2631:12 2635:2 2636:2 2637:6 2640:2 2647:2 2649:4 2652:2 2666:2 2668:4 2674:2 2676:2 2688:6 2690:4 2699:4 2700:2 2712:4 2723:2 2731:2 2733:6 2740:2 2750:2 2755:2 2777:2 2778:2 2780:2 2792:2 2796:2}\n'
tp3
a(S't # 2 * 582\n'
S'v 0 5\nv 1 12\n'
S'v 1 12\n'
S'e 0 1 0\n'
S'e 0 1 0\n'
S' {1:3 5:3 19:2 24:1 31:2 32:1 37:2 38:1 47:1 64:1 71:6 73:6 75:1 82:1 87:2 89:1 91:2 102:1 108:1 116:1 120:1 123:1 126:1 127:10 130:3 141:1 142:3 152:2 167:1 172:2 176:1 180:1 188:1 204:2 206:3 207:2 210:2 220:1 222:1 223:2 224:1 225:2 235:3 241:4 244:3 257:1 262:3 267:1 274:1 284:1 285:1 299:1 301:3 302:6 303:2 311:2 318:1 327:1 334:4 337:1 350:2 353:2 362:6 377:3 388:2 392:1 393:1 405:1 407:3 413:3 414:1 416:1 420:2 424:4 426:1 432:4 441:1 464:2 465:1 472:1 474:1 479:8 482:3 484:2 489:2 491:3 498:1 505:1 506:3 508:1 509:2 525:1 532:1 533:1 540:1 553:3 577:3 581:1 584:1 591:2 604:3 606:1 611:1 621:2 631:2 637:1 641:4 655:1 661:1 669:7 676:3 681:1 685:1 694:1 702:3 712:5 724:3 746:8 752:2 761:1 765:1 777:2 778:1 781:3 784:3 789:1 793:2 807:1 811:1 823:1 829:1 846:2 848:2 849:1 856:1 864:4 865:1 871:1 874:2 892:4 893:3 903:5 906:2 908:2 927:1 932:2 947:2 951:2 961:1 965:2 970:1 986:2 987:2 989:1 991:2 993:1 999:2 1006:1 1020:3 1024:2 1025:3 1030:3 1033:1 1043:2 1048:6 1052:2 1056:1 1065:1 1088:1 1090:2 1093:1 1095:8 1097:1 1108:2 1114:2 1116:4 1118:1 1123:1 1127:1 1138:1 1148:1 1149:2 1158:3 1160:1 1166:1 1181:1 1182:1 1186:1 1187:4 1191:1 1203:1 1209:2 1216:1 1217:1 1220:1 1222:1 1226:1 1234:2 1235:1 1240:1 1242:2 1247:4 1249:1 1251:1 1267:2 1269:1 1278:10 1288:6 1297:2 1302:1 1309:5 1310:1 1312:1 1313:3 1320:1 1321:1 1326:1 1327:2 1333:2 1353:4 1355:3 1369:9 1371:1 1374:1 1377:4 1378:1 1384:1 1385:1 1396:2 1398:2 1401:1 1410:3 1415:1 1416:1 1417:3 1424:1 1425:2 1428:2 1430:4 1433:1 1444:2 1445:1 1457:4 1458:3 1467:3 1490:1 1494:3 1495:2 1504:2 1505:1 1508:1 1516:1 1518:3 1521:1 1524:2 1531:1 1533:1 1534:1 1541:1 1549:1 1553:1 1557:1 1560:1 1561:1 1575:1 1586:1 1587:1 1593:1 1594:1 1597:1 1598:1 1600:1 1603:1 1608:1 1610:2 1612:1 1618:1 1620:3 1621:1 1623:1 1624:1 1626:1 1627:2 1635:1 1636:1 1644:1 1647:1 1654:1 1656:1 1657:1 1660:1 1664:1 1665:1 1669:1 1672:1 1678:1 1679:1 1682:1 1686:1 1693:1 1701:3 1702:1 1703:2 1715:1 1719:1 1731:1 1732:1 1736:1 1743:1 1746:2 1747:1 1748:1 1750:1 1758:2 1761:2 1770:1 1772:1 1775:1 1782:1 1784:1 1785:5 1790:1 1792:1 1796:2 1800:3 1802:2 1804:2 1810:1 1816:2 1822:2 1827:1 1829:1 1830:2 1837:3 1838:1 1841:3 1844:3 1845:1 1849:1 1851:1 1852:2 1853:1 1854:1 1855:1 1857:1 1858:1 1859:1 1864:1 1870:1 1873:1 1878:1 1881:1 1883:1 1900:1 1922:1 1935:1 1937:1 1939:1 1940:1 1941:1 1943:1 1946:1 1948:1 1950:1 1952:2 1954:1 1963:1 1964:1 1969:2 1973:2 1978:1 1986:1 1991:1 1994:2 1995:2 1996:1 1998:2 2003:1 2005:1 2007:1 2008:1 2014:1 2015:2 2017:1 2022:1 2029:1 2033:1 2037:1 2038:2 2045:1 2046:1 2049:1 2052:1 2058:1 2066:1 2068:1 2069:1 2077:1 2078:1 2082:1 2083:1 2084:1 2090:1 2100:1 2103:1 2104:1 2106:1 2108:1 2111:1 2120:1 2125:1 2129:1 2138:1 2150:1 2152:1 2160:1 2163:2 2181:1 2182:1 2183:1 2184:1 2185:2 2186:1 2187:1 2188:1 2191:1 2192:1 2198:1 2208:1 2209:1 2212:2 2224:1 2225:2 2228:1 2229:3 2237:1 2243:2 2246:1 2253:1 2257:1 2266:1 2267:1 2282:1 2285:1 2287:1 2294:1 2298:2 2299:4 2300:1 2304:1 2318:1 2325:2 2327:1 2330:1 2332:1 2334:1 2336:1 2341:1 2343:1 2345:1 2348:1 2350:1 2351:1 2358:1 2364:1 2365:1 2369:1 2371:1 2375:1 2378:1 2379:3 2386:1 2390:1 2392:1 2398:1 2404:1 2409:1 2412:1 2417:3 2419:2 2420:1 2421:1 2424:1 2425:1 2427:1 2429:1 2436:1 2438:1 2439:1 2442:1 2447:2 2457:1 2458:1 2463:1 2464:1 2471:1 2473:1 2474:3 2492:1 2495:2 2498:1 2499:1 2502:1 2505:1 2509:1 2510:1 2512:1 2515:2 2517:4 2521:1 2523:1 2527:1 2530:2 2539:3 2542:1 2543:1 2557:1 2558:1 2561:1 2568:1 2570:1 2572:1 2573:2 2574:1 2581:3 2590:2 2592:2 2593:1 2594:1 2596:1 2603:1 2607:1 2610:5 2613:2 2623:1 2624:1 2625:1 2640:1 2647:1 2657:2 2661:1 2663:1 2664:1 2669:1 2670:1 2673:2 2674:1 2676:1 2682:1 2684:1 2688:3 2689:1 2692:3 2695:1 2701:1 2702:1 2703:3 2704:2 2706:1 2711:1 2722:1 2735:1 2739:1 2740:2 2743:6 2746:2 2750:2 2756:1 2758:2 2759:1 2761:1 2762:1 2764:1 2767:1 2771:1 2772:1 2780:1 2781:1 2786:1 2789:1 2796:1 2798:1}\n'
tp4
a(S't # 3 * 760\n'
S'v 0 11\nv 1 11\n'
S'v 1 11\n'
S'e 0 1 0\n'
S'e 0 1 0\n'
S' {2:4 5:4 6:4 12:10 16:2 23:2 26:6 27:4 30:8 33:2 38:2 39:2 43:12 44:6 45:18 49:4 50:8 53:4 54:16 55:6 56:8 57:8 58:2 60:2 62:8 63:2 65:4 69:8 74:2 81:2 87:2 89:2 90:2 92:2 94:4 97:2 98:4 99:2 110:2 112:2 114:2 115:2 118:2 124:2 125:4 128:2 129:2 132:2 133:4 134:6 135:2 136:2 137:2 138:4 139:2 145:30 146:2 157:20 159:2 161:2 162:4 168:2 169:2 170:2 171:6 177:10 178:12 180:2 181:2 183:2 184:2 186:4 188:2 191:22 195:4 196:14 197:4 201:6 207:2 212:2 213:4 214:4 215:6 216:2 217:2 219:4 221:4 222:4 224:2 227:2 228:2 230:6 233:2 234:4 239:4 240:4 242:2 248:4 253:6 254:6 258:2 259:4 260:2 265:12 266:4 267:2 271:4 273:2 274:2 277:2 278:6 279:6 281:2 282:2 286:6 287:20 290:2 291:4 292:4 293:12 294:2 300:2 304:2 305:6 306:2 308:2 309:4 312:4 314:2 316:4 320:2 323:8 325:2 326:2 327:16 328:2 329:14 332:8 333:20 335:8 336:4 337:6 339:2 342:4 343:2 345:6 348:4 349:2 354:4 356:4 360:4 363:2 364:4 366:4 367:2 368:2 369:2 370:2 373:2 374:8 379:4 382:6 385:2 387:2 389:6 391:6 397:4 399:2 406:4 407:4 408:24 415:2 416:2 421:2 423:4 429:2 433:2 437:6 438:4 439:12 442:10 443:8 444:4 445:6 446:8 447:6 448:10 449:8 455:6 456:8 457:4 458:24 459:2 460:2 462:12 466:2 467:4 468:10 469:8 470:2 478:2 480:14 483:2 485:10 486:2 487:4 488:2 492:2 493:8 496:4 498:2 500:2 501:12 502:6 503:8 504:2 510:4 511:2 519:4 522:4 530:6 542:4 543:2 546:2 547:4 549:4 552:10 556:2 557:2 558:2 559:2 562:4 563:2 565:4 566:4 567:6 568:2 572:2 574:4 575:2 576:2 581:12 582:2 586:4 587:10 589:2 592:4 595:2 596:2 597:2 598:8 600:2 605:2 608:6 612:2 614:4 617:4 618:4 619:4 622:4 626:4 627:8 628:4 633:6 634:2 638:6 639:16 640:6 642:2 643:8 645:6 648:2 652:4 654:2 656:8 657:2 664:2 666:10 667:4 672:2 675:6 677:6 680:2 686:4 689:4 691:24 692:10 693:2 696:2 700:2 701:4 703:18 706:6 710:2 711:14 715:10 720:2 722:16 726:2 729:2 731:2 734:2 735:4 737:2 738:4 739:8 745:2 747:2 749:2 751:2 755:4 756:16 758:10 763:4 765:2 766:2 769:8 771:4 772:4 773:12 784:4 785:2 790:26 792:2 795:4 796:18 797:6 798:2 799:4 800:2 801:14 804:2 805:2 806:4 809:8 814:4 815:6 817:4 818:4 822:4 824:2 825:4 828:2 831:10 834:8 836:2 837:4 844:6 848:4 850:2 853:2 857:2 859:12 860:2 864:2 868:6 870:4 874:4 876:4 877:4 878:6 880:2 882:2 884:2 889:4 895:6 897:2 904:2 905:2 907:6 909:8 910:2 912:6 913:2 914:16 916:6 919:2 920:6 923:2 926:6 928:2 932:2 934:2 935:2 936:40 938:2 939:2 940:18 944:2 946:18 947:2 950:2 952:6 953:2 955:2 956:2 959:2 966:4 968:2 971:6 973:6 974:10 981:8 982:2 983:4 985:4 989:2 994:4 997:4 998:2 999:2 1001:2 1003:2 1008:2 1011:4 1012:8 1015:10 1017:2 1018:6 1020:2 1023:2 1034:4 1035:8 1038:6 1042:4 1049:4 1050:2 1051:4 1053:4 1058:6 1061:2 1064:2 1069:2 1074:2 1075:4 1077:14 1078:4 1081:10 1083:2 1085:10 1086:4 1089:8 1091:4 1099:2 1100:8 1104:2 1105:2 1106:16 1110:8 1111:4 1113:2 1118:2 1119:2 1121:12 1122:2 1128:2 1129:6 1130:8 1133:8 1136:2 1142:2 1145:2 1149:2 1151:4 1152:12 1153:8 1155:2 1158:2 1159:4 1170:12 1172:2 1174:14 1175:2 1184:2 1188:2 1197:10 1198:8 1199:4 1204:2 1207:8 1210:6 1211:8 1212:4 1219:10 1223:18 1224:4 1227:6 1228:12 1229:12 1230:2 1232:2 1233:4 1235:2 1236:2 1238:2 1240:6 1245:4 1246:2 1248:2 1250:6 1254:2 1258:4 1260:2 1262:6 1264:4 1266:14 1268:4 1270:12 1272:6 1273:2 1275:22 1277:2 1280:2 1282:2 1283:4 1286:4 1287:8 1291:6 1295:2 1296:2 1299:2 1300:4 1303:2 1305:2 1307:8 1312:2 1313:10 1315:12 1317:2 1319:2 1320:12 1322:2 1323:2 1325:8 1329:6 1330:4 1331:10 1334:2 1335:4 1336:4 1337:2 1342:8 1345:12 1347:2 1348:6 1352:8 1356:2 1361:4 1367:4 1368:2 1374:4 1376:6 1389:6 1391:2 1392:2 1393:6 1399:4 1402:2 1404:2 1409:18 1412:6 1414:2 1419:8 1422:2 1427:2 1429:6 1441:2 1442:4 1446:2 1452:2 1453:2 1456:2 1461:2 1462:4 1463:4 1467:16 1470:2 1473:2 1477:2 1480:2 1481:16 1482:2 1483:2 1486:4 1487:8 1496:2 1500:6 1501:2 1502:4 1503:2 1504:2 1505:2 1507:6 1509:6 1510:8 1514:2 1540:2 1546:2 1554:2 1556:2 1559:2 1561:2 1563:8 1573:2 1593:2 1595:2 1601:2 1610:2 1623:2 1628:2 1640:2 1641:2 1649:2 1673:2 1677:2 1682:2 1685:4 1705:2 1716:2 1718:2 1720:2 1721:2 1724:4 1725:2 1731:6 1742:2 1744:2 1770:2 1771:2 1776:2 1778:2 1779:2 1795:2 1802:2 1811:2 1826:2 1835:2 1836:2 1860:2 1865:2 1866:4 1869:2 1880:2 1881:2 1885:2 1894:2 1904:2 1909:2 1912:4 1915:2 1920:2 1927:2 1944:2 1947:6 1952:2 1964:2 1967:2 1987:2 2012:2 2028:2 2057:2 2062:2 2064:10 2065:2 2086:2 2095:2 2104:2 2111:2 2117:2 2120:4 2124:2 2125:2 2130:6 2134:2 2141:2 2142:2 2143:2 2144:4 2159:4 2163:2 2165:2 2174:2 2176:2 2183:2 2190:2 2205:2 2210:2 2213:2 2218:4 2230:2 2251:4 2258:2 2259:2 2268:2 2274:2 2275:2 2278:2 2281:2 2311:4 2312:2 2315:2 2317:2 2333:2 2334:2 2335:2 2373:4 2379:2 2391:2 2402:2 2415:2 2431:2 2436:2 2453:2 2460:2 2464:2 2480:2 2489:2 2521:2 2528:2 2547:2 2548:2 2550:2 2555:2 2558:2 2559:2 2563:2 2570:2 2580:2 2582:6 2584:4 2585:2 2590:2 2594:2 2597:6 2602:2 2607:2 2611:10 2618:2 2619:2 2624:2 2633:6 2643:2 2653:2 2655:2 2657:2 2658:2 2670:2 2673:2 2674:4 2688:2 2689:4 2694:4 2705:4 2709:2 2710:2 2714:30 2731:2 2732:4 2756:2 2782:2}\n'
tp5
a(S't # 4 * 466\n'
S'v 0 5\nv 1 12\n'
S'v 1 12\n'
S'e 0 1 1\n'
S'e 0 1 1\n'
S' {1:6 5:1 10:1 19:3 24:1 25:1 31:2 32:1 36:1 37:2 38:1 71:4 73:6 82:4 91:1 102:2 116:2 127:5 142:2 152:3 165:1 167:2 175:2 176:1 204:1 205:1 206:2 220:1 223:2 224:2 225:3 235:4 241:1 281:1 284:1 285:1 299:2 301:1 302:4 303:3 307:1 311:1 318:2 319:1 326:1 334:2 339:1 350:1 353:4 358:1 362:5 365:1 377:2 392:1 393:1 405:1 407:3 420:2 424:2 426:2 432:3 441:2 465:1 466:1 472:1 474:1 479:7 482:1 484:1 489:1 491:2 505:2 508:1 509:3 532:4 533:2 540:2 544:1 556:2 581:1 583:1 584:2 604:3 606:2 611:1 621:2 641:3 651:1 655:2 669:5 676:1 685:1 712:10 724:1 735:1 746:8 752:2 761:1 775:2 777:2 778:1 781:3 792:1 807:2 811:1 820:1 823:2 833:1 846:1 848:1 849:2 856:2 864:3 865:1 874:3 892:4 893:2 903:8 906:1 908:2 927:1 931:1 932:1 951:2 957:1 961:1 965:1 967:1 970:1 986:2 987:2 991:2 993:1 999:1 1006:1 1020:2 1024:2 1025:3 1030:2 1033:2 1043:1 1048:5 1056:1 1058:1 1065:2 1088:1 1090:1 1093:2 1095:9 1116:3 1123:2 1127:2 1140:1 1148:2 1149:4 1158:4 1160:2 1166:1 1182:1 1186:1 1187:3 1203:2 1209:1 1216:2 1220:1 1222:5 1225:1 1226:2 1234:1 1247:9 1267:2 1269:1 1278:8 1288:5 1297:3 1309:7 1310:1 1312:1 1313:2 1314:2 1321:2 1327:1 1333:2 1353:3 1360:1 1369:14 1371:1 1374:1 1377:5 1384:2 1385:1 1392:1 1398:2 1410:2 1413:1 1415:2 1416:1 1417:3 1420:1 1423:1 1424:2 1425:2 1430:5 1444:1 1447:1 1457:4 1467:1 1489:1 1490:1 1494:1 1495:1 1504:4 1508:2 1516:2 1518:1 1524:2 1532:1 1533:3 1541:1 1548:1 1549:2 1551:1 1552:1 1557:4 1565:1 1566:1 1567:1 1578:1 1585:1 1593:1 1594:2 1610:3 1624:1 1626:1 1627:1 1634:1 1635:3 1638:1 1645:2 1654:1 1670:3 1686:3 1690:2 1692:1 1713:1 1721:1 1741:2 1743:2 1745:1 1747:1 1752:1 1758:1 1761:4 1763:1 1770:1 1781:1 1782:2 1785:4 1787:1 1789:1 1796:3 1800:3 1804:2 1812:1 1814:1 1816:3 1822:1 1824:1 1826:1 1828:1 1830:3 1833:1 1837:2 1841:2 1844:1 1852:3 1854:3 1864:3 1876:1 1888:1 1892:2 1897:1 1904:1 1905:1 1913:2 1916:1 1926:1 1932:1 1941:1 1960:1 1969:1 1970:1 1973:1 1982:2 1984:1 1994:1 1995:2 1998:2 2002:1 2009:1 2015:2 2021:1 2029:1 2031:1 2034:1 2044:1 2045:2 2049:1 2052:2 2057:1 2062:1 2064:1 2066:1 2068:1 2072:1 2073:1 2074:1 2076:1 2078:2 2081:1 2084:1 2092:1 2099:1 2116:1 2122:1 2123:1 2138:1 2160:1 2163:1 2164:1 2169:1 2173:2 2174:1 2182:1 2184:1 2185:3 2194:1 2199:1 2200:1 2207:1 2209:1 2212:3 2221:1 2226:1 2228:1 2230:1 2237:1 2243:1 2245:1 2246:1 2248:1 2253:1 2254:1 2261:1 2263:1 2269:1 2271:1 2275:1 2277:1 2278:1 2291:1 2294:2 2295:1 2298:3 2299:4 2321:1 2328:1 2330:1 2333:1 2337:1 2341:1 2345:2 2347:1 2348:1 2354:1 2357:1 2365:1 2369:1 2386:5 2392:2 2404:1 2412:1 2414:1 2419:3 2420:1 2427:2 2436:1 2440:1 2445:2 2447:3 2450:1 2454:1 2460:1 2461:1 2471:1 2474:3 2478:1 2485:1 2486:1 2487:1 2488:1 2495:3 2505:2 2507:1 2508:1 2511:1 2516:1 2517:1 2521:3 2524:1 2527:1 2530:1 2539:3 2541:1 2545:1 2553:1 2557:2 2569:1 2573:2 2574:1 2583:1 2588:1 2590:3 2591:1 2592:2 2594:1 2598:1 2603:1 2606:1 2607:1 2608:1 2610:2 2611:1 2618:1 2623:1 2632:1 2647:1 2650:2 2657:1 2662:1 2663:3 2669:1 2670:2 2673:4 2676:1 2677:1 2689:1 2692:1 2698:1 2701:1 2703:4 2707:1 2715:1 2719:3 2721:1 2739:1 2743:1 2755:1 2759:2 2764:1 2769:1 2771:1 2772:1 2785:1 2794:1 2800:1}\n'
tp6
a(S't # 5 * 481\n'
S'v 0 4\nv 1 5\n'
S'v 1 5\n'
S'e 0 1 0\n'
S'e 0 1 0\n'
S' {1:1 4:3 7:1 10:2 12:2 19:1 29:1 35:2 46:1 47:1 52:1 64:1 66:1 71:6 75:1 76:3 87:1 89:1 108:1 113:1 119:1 126:1 127:1 129:1 135:1 144:1 153:1 158:1 163:1 165:2 166:1 173:1 175:1 176:1 189:1 206:2 209:2 218:2 224:3 227:1 233:1 237:2 241:1 246:1 247:1 256:1 262:1 264:1 269:1 273:2 274:2 275:2 280:1 281:1 294:1 304:1 319:1 326:2 339:2 365:1 368:1 376:2 383:5 396:1 398:1 405:1 407:1 414:1 418:1 437:1 452:2 466:4 472:3 483:4 487:1 498:1 508:1 540:1 544:1 546:1 556:2 564:3 565:1 572:2 575:1 580:1 591:1 610:1 612:1 613:2 625:1 631:1 634:1 645:2 646:4 647:1 649:2 651:2 661:1 669:1 670:1 674:1 679:9 681:1 682:4 694:1 696:1 707:1 710:1 724:1 731:1 735:1 742:1 752:1 757:1 776:1 778:1 783:1 792:1 802:1 810:2 811:1 812:3 819:1 821:2 825:2 833:1 838:4 843:1 848:2 851:1 861:1 864:1 871:1 885:4 893:1 894:1 897:1 919:1 929:1 932:1 947:1 957:1 963:1 967:2 969:2 970:1 976:2 986:2 998:1 999:1 1001:1 1005:2 1031:1 1033:2 1036:2 1048:1 1054:1 1056:3 1058:1 1066:2 1078:2 1080:1 1095:1 1108:1 1117:1 1134:1 1138:1 1140:1 1144:1 1155:2 1167:4 1181:1 1187:3 1189:1 1191:1 1196:2 1203:1 1206:1 1207:3 1209:1 1213:1 1216:2 1217:1 1220:1 1222:2 1224:2 1225:1 1235:1 1247:3 1251:1 1253:2 1269:2 1274:2 1286:1 1292:1 1296:1 1298:1 1302:1 1312:1 1320:2 1323:1 1326:2 1349:1 1350:1 1351:3 1353:4 1360:1 1363:1 1365:1 1366:2 1369:2 1371:2 1373:1 1375:1 1377:2 1379:1 1386:1 1408:2 1411:2 1413:1 1420:1 1424:2 1434:3 1445:1 1447:1 1464:2 1466:2 1467:1 1475:3 1476:2 1478:1 1497:1 1503:2 1509:1 1513:1 1514:1 1516:1 1519:1 1530:1 1534:1 1541:2 1556:2 1557:1 1567:1 1568:1 1575:1 1593:1 1594:2 1595:2 1598:1 1605:1 1617:1 1634:1 1640:1 1641:1 1649:1 1651:1 1656:1 1667:1 1672:3 1682:2 1684:3 1687:1 1688:2 1699:1 1702:2 1703:3 1714:1 1715:2 1736:1 1744:1 1747:1 1748:1 1756:1 1757:1 1766:1 1767:1 1770:1 1776:2 1780:1 1781:1 1782:1 1804:2 1808:1 1813:1 1814:1 1816:1 1822:1 1823:1 1826:1 1829:1 1833:2 1836:2 1837:1 1838:1 1839:1 1844:3 1848:1 1854:1 1864:1 1867:1 1875:1 1881:1 1888:1 1892:1 1904:1 1907:1 1908:3 1911:2 1913:1 1915:2 1918:1 1920:2 1927:1 1945:1 1952:2 1954:1 1958:1 1967:2 1969:3 1970:1 1973:1 1980:1 1990:1 2006:1 2007:1 2009:2 2015:1 2028:1 2031:1 2042:2 2045:4 2049:1 2057:1 2060:1 2065:1 2066:1 2067:1 2068:1 2072:1 2076:1 2078:1 2080:3 2092:1 2099:1 2103:2 2111:1 2116:1 2119:2 2120:1 2125:1 2133:1 2138:1 2155:1 2163:1 2168:4 2174:1 2177:1 2181:1 2182:1 2187:1 2194:1 2197:1 2207:1 2220:1 2228:2 2237:1 2245:2 2252:1 2262:1 2277:1 2282:1 2292:4 2294:1 2297:2 2301:1 2308:1 2309:1 2311:1 2312:2 2317:3 2321:1 2325:1 2330:1 2331:1 2334:1 2348:1 2354:1 2357:2 2359:1 2365:2 2369:1 2375:2 2379:1 2386:1 2392:1 2410:2 2415:1 2417:1 2418:1 2419:2 2424:1 2427:1 2431:1 2439:1 2443:1 2445:1 2450:1 2453:1 2454:2 2471:1 2478:1 2486:1 2494:1 2495:2 2505:1 2509:2 2516:1 2518:1 2521:2 2522:1 2527:3 2536:2 2547:1 2558:1 2559:1 2567:1 2581:1 2583:1 2590:2 2595:1 2597:2 2601:1 2604:1 2607:1 2608:1 2611:1 2614:1 2618:4 2623:2 2625:1 2632:1 2633:1 2635:1 2636:2 2637:2 2640:1 2641:1 2643:1 2647:1 2652:2 2657:2 2659:1 2662:1 2663:1 2667:1 2668:2 2669:1 2673:1 2674:1 2676:2 2688:1 2698:2 2699:1 2700:1 2707:1 2710:1 2715:1 2731:1 2735:1 2743:2 2749:1 2755:2 2761:1 2763:1 2772:1 2773:1 2776:1 2778:2 2789:1}\n'
tp7
a(S't # 6 * 625\n'
S'v 0 11\nv 1 11\n'
S'v 1 11\n'
S'e 0 1 1\n'
S'e 0 1 1\n'
S' {2:2 5:4 6:2 12:8 26:4 27:2 29:2 30:6 34:2 41:4 43:12 44:4 45:20 49:2 50:6 52:4 53:4 54:18 55:4 56:10 57:8 59:2 60:2 62:8 65:2 66:2 67:2 69:6 88:6 94:4 98:2 99:2 100:4 112:2 114:2 118:2 124:2 125:8 128:2 129:2 133:2 134:6 137:2 138:2 144:2 145:38 157:22 162:2 166:2 171:4 175:2 177:8 178:14 184:4 186:4 191:24 195:2 196:14 197:2 199:2 201:6 203:2 212:2 213:2 214:4 215:6 217:2 219:2 221:4 222:8 227:2 230:4 231:8 234:2 239:2 240:2 242:2 248:4 251:2 253:4 254:6 259:4 260:2 262:2 265:10 266:2 271:2 273:4 278:4 279:8 281:2 286:4 287:24 289:2 291:2 292:2 293:10 300:2 305:6 307:2 309:2 312:2 316:2 323:6 327:10 329:16 331:2 332:2 333:18 335:8 336:2 337:6 338:2 340:2 342:2 343:2 345:4 348:2 352:2 354:6 356:2 360:8 364:2 365:2 366:2 367:2 374:6 378:6 379:2 381:2 382:4 387:2 389:6 391:6 397:2 401:2 406:2 408:36 411:2 416:2 421:2 423:2 428:2 437:4 438:2 439:18 442:8 443:6 444:2 445:4 447:4 448:8 449:10 455:4 456:6 457:4 458:28 462:10 467:2 468:10 469:6 471:2 480:14 485:12 486:2 487:2 493:4 496:4 497:4 500:4 501:14 502:8 503:6 504:2 510:4 519:2 520:2 522:2 530:4 534:2 535:2 542:2 543:4 545:2 547:2 549:2 552:8 556:2 557:2 559:2 562:2 565:2 566:2 567:4 571:2 574:2 576:4 578:2 581:12 586:4 587:10 590:2 592:2 594:2 598:6 605:2 608:6 614:2 616:2 617:2 618:6 619:2 622:8 626:4 627:6 628:2 630:6 633:4 638:4 639:14 640:2 642:4 643:6 645:2 652:4 654:2 656:10 657:2 662:2 664:2 666:12 667:2 675:4 677:4 678:2 683:2 686:2 689:2 691:26 692:12 694:2 695:2 700:4 701:6 703:16 705:8 706:6 711:18 715:8 722:16 727:4 728:4 729:2 730:2 735:6 738:4 739:6 744:2 750:2 755:2 756:14 758:8 760:2 763:4 767:2 769:6 771:2 772:6 773:10 774:2 775:2 779:2 784:4 790:24 795:4 796:26 797:6 798:2 801:14 806:2 809:6 814:2 815:8 816:2 817:2 818:2 822:4 825:2 831:8 834:6 837:2 844:4 848:6 858:2 859:10 863:2 868:4 869:2 870:2 874:2 875:2 877:4 878:4 883:2 884:2 889:2 895:8 896:2 900:2 907:4 909:10 912:4 913:2 914:16 916:4 918:2 919:4 920:4 924:2 925:2 926:4 934:2 935:2 936:50 940:14 944:2 946:18 947:2 948:2 952:4 957:2 965:2 966:2 971:4 972:2 973:4 974:8 978:2 980:2 981:6 982:4 983:2 984:2 985:2 988:2 994:6 995:2 997:2 1003:2 1004:4 1011:4 1012:8 1014:2 1015:10 1017:2 1018:4 1021:2 1034:4 1035:6 1038:4 1039:2 1042:2 1049:2 1050:2 1051:4 1053:2 1056:4 1058:4 1059:2 1074:4 1077:16 1078:2 1081:8 1085:8 1086:2 1089:6 1091:2 1092:6 1100:8 1106:14 1110:6 1111:2 1112:2 1113:2 1119:2 1121:8 1122:2 1128:6 1129:4 1130:12 1133:6 1136:4 1143:2 1145:2 1146:4 1147:2 1151:2 1152:12 1153:6 1159:4 1170:16 1171:2 1174:16 1186:2 1192:2 1197:8 1198:6 1199:2 1204:2 1207:6 1210:4 1211:6 1212:6 1218:2 1219:8 1223:20 1224:2 1227:4 1228:16 1229:14 1231:6 1232:4 1233:2 1235:2 1240:6 1245:6 1250:4 1253:4 1258:4 1260:2 1262:4 1264:2 1266:14 1268:2 1270:14 1271:2 1272:4 1275:20 1280:2 1282:2 1283:2 1286:2 1287:10 1291:6 1296:2 1300:2 1307:8 1313:8 1315:12 1316:2 1319:6 1320:6 1325:6 1329:4 1330:2 1331:8 1335:8 1336:4 1337:8 1342:8 1345:10 1348:8 1352:10 1356:2 1359:2 1361:2 1362:2 1367:4 1369:2 1374:2 1376:4 1379:2 1389:6 1392:2 1393:4 1399:2 1406:2 1409:20 1412:10 1414:4 1419:8 1429:8 1437:2 1440:2 1442:2 1462:2 1463:2 1465:2 1467:16 1474:2 1480:2 1481:22 1486:4 1487:8 1499:2 1500:4 1501:2 1502:2 1507:4 1509:4 1510:6 1516:2 1517:2 1519:2 1521:2 1559:2 1563:10 1568:2 1578:2 1585:2 1590:2 1595:2 1596:2 1607:2 1609:2 1628:2 1629:2 1637:2 1666:4 1675:2 1680:2 1685:6 1698:2 1716:2 1721:2 1724:2 1731:4 1742:2 1745:2 1748:2 1756:2 1779:2 1789:2 1802:2 1829:2 1835:2 1838:2 1866:2 1887:2 1892:2 1904:6 1911:2 1912:2 1915:2 1916:2 1919:2 1947:4 1975:2 1991:2 1999:2 2012:2 2030:4 2038:2 2042:2 2064:8 2075:4 2094:2 2111:2 2120:2 2124:2 2130:4 2143:2 2144:4 2159:2 2176:2 2177:2 2182:2 2197:2 2210:6 2218:2 2226:2 2227:2 2251:6 2258:2 2275:2 2311:2 2312:8 2314:2 2317:2 2321:2 2350:2 2370:2 2372:2 2373:2 2436:2 2440:2 2459:4 2460:4 2462:2 2494:2 2528:2 2540:2 2548:6 2555:2 2559:2 2563:2 2564:2 2582:4 2584:2 2597:4 2603:2 2604:2 2611:6 2615:2 2621:2 2623:2 2624:2 2633:6 2640:2 2658:2 2673:2 2674:2 2685:2 2689:2 2692:2 2694:4 2698:2 2705:2 2714:36 2732:2 2760:2 2766:2 2772:2 2780:2 2785:2}\n'
tp8
a(S't # 7 * 248\n'
S'v 0 12\nv 1 12\n'
S'v 1 12\n'
S'e 0 1 1\n'
S'e 0 1 1\n'
S' {1:2 5:2 18:4 38:2 61:6 71:4 73:8 79:4 82:2 91:6 98:2 121:10 127:10 130:2 141:2 156:6 164:2 168:2 172:2 176:2 204:4 207:2 223:2 233:2 238:4 241:4 244:2 257:2 284:2 301:2 302:6 311:2 315:10 334:2 345:2 350:4 353:2 357:6 362:2 365:2 392:2 402:4 413:2 416:2 424:2 430:4 432:2 436:30 439:2 464:4 475:6 479:4 480:2 482:2 491:12 493:2 494:6 505:2 506:2 507:2 509:2 516:14 526:2 529:16 537:4 541:18 553:2 573:8 604:2 611:2 615:6 617:4 621:16 635:12 641:10 644:4 660:2 665:4 669:12 676:2 681:2 697:10 700:2 702:2 712:6 724:2 738:2 742:2 746:8 761:2 775:2 781:4 784:2 789:2 804:2 823:2 827:2 845:2 864:6 865:2 892:6 893:2 903:4 906:2 908:2 915:4 921:8 932:6 940:2 958:2 965:2 993:2 996:4 1006:2 1020:2 1025:8 1030:2 1039:4 1048:4 1060:4 1073:4 1079:2 1095:8 1105:2 1114:2 1116:2 1131:4 1149:2 1169:4 1179:4 1184:2 1187:2 1194:4 1202:2 1209:2 1215:10 1216:4 1222:4 1226:6 1242:2 1244:6 1251:2 1256:6 1267:2 1270:14 1278:12 1288:4 1294:4 1299:2 1312:4 1313:2 1314:2 1318:2 1337:2 1353:6 1355:2 1357:2 1358:6 1369:6 1380:8 1410:4 1415:2 1428:2 1430:6 1455:2 1457:6 1458:2 1459:4 1467:2 1468:2 1494:2 1504:4 1513:2 1522:2 1533:2 1549:2 1564:2 1587:2 1598:2 1620:2 1627:2 1644:2 1655:2 1687:2 1690:2 1692:2 1701:4 1720:2 1721:2 1743:2 1746:2 1770:2 1785:2 1790:2 1810:2 1837:2 1841:4 1852:2 1864:2 1941:2 1952:2 1995:2 2029:2 2038:2 2078:2 2084:2 2184:2 2212:2 2229:2 2256:2 2276:2 2298:2 2299:2 2343:2 2357:2 2377:4 2379:2 2386:2 2417:2 2419:2 2480:2 2498:2 2505:2 2517:4 2527:2 2530:2 2539:2 2548:2 2573:2 2581:2 2592:2 2603:4 2610:2 2649:2 2657:2 2669:2 2673:2 2676:4 2688:2 2703:2 2704:2 2708:2 2733:2 2740:2 2742:2 2743:6 2746:2 2758:4}\n'
tp9
a(S't # 8 * 1008\n'
S'v 0 4\nv 1 11\n'
S'v 1 11\n'
S'e 0 1 1\n'
S'e 0 1 1\n'
S' {0:1 3:1 5:1 6:1 12:2 13:1 16:2 19:2 20:1 21:2 23:2 28:2 34:3 38:1 39:2 43:9 46:1 47:1 49:1 50:5 52:1 53:1 56:5 57:12 58:2 59:3 62:2 63:2 66:3 67:1 74:2 80:1 81:1 84:3 85:1 87:1 88:1 90:1 92:2 94:5 96:1 97:2 98:4 99:2 107:3 109:1 110:2 112:5 114:1 115:3 118:2 124:1 125:4 128:1 129:2 132:2 133:1 134:3 135:1 136:6 138:2 143:2 144:3 146:3 147:2 149:2 153:1 161:2 162:1 165:1 166:1 168:2 169:2 170:13 173:1 175:3 178:5 179:1 180:2 181:2 183:2 184:1 185:2 186:1 194:1 195:1 197:1 199:2 200:2 201:4 203:2 205:1 209:3 213:1 214:11 215:2 216:5 217:8 218:1 219:1 221:1 222:1 224:1 227:6 230:4 231:2 232:6 234:1 237:2 239:2 240:2 242:1 245:1 246:1 248:1 252:1 254:4 258:2 259:3 260:1 263:2 264:1 266:1 270:1 271:1 272:1 273:5 274:5 277:2 279:6 280:1 281:5 282:2 287:1 288:1 290:2 291:2 294:1 300:5 304:3 305:2 306:2 308:2 309:6 310:2 313:1 314:2 320:4 322:1 325:2 326:4 327:7 329:11 332:6 339:4 342:3 343:1 344:3 345:1 348:2 349:1 354:5 356:6 360:4 361:2 363:2 364:2 365:1 366:1 367:2 368:2 369:2 370:2 373:3 374:2 379:7 385:2 387:2 390:1 391:3 397:4 399:3 404:1 407:3 408:5 412:2 415:3 421:2 429:2 433:2 435:2 437:2 438:3 440:1 444:2 446:19 447:5 448:4 449:11 457:1 459:2 460:3 461:2 463:1 467:1 469:2 470:3 478:2 480:4 483:1 485:7 486:4 487:1 488:2 490:1 492:2 496:2 497:1 498:1 499:1 500:4 501:5 502:3 504:1 510:5 511:3 512:3 513:1 519:1 521:3 522:2 524:1 526:1 530:8 534:1 542:2 543:2 544:1 546:1 547:2 549:3 552:9 556:6 557:5 558:2 562:1 563:2 565:1 566:1 568:3 569:2 571:3 572:2 574:2 575:2 576:6 581:8 582:2 586:4 588:1 589:2 592:1 593:3 595:3 596:2 597:5 600:2 602:2 605:2 608:2 612:1 614:6 616:4 617:3 618:4 619:2 620:1 622:2 623:1 626:6 627:10 628:2 630:4 634:2 640:6 642:6 645:3 646:1 648:3 650:3 652:1 654:4 657:1 659:1 662:2 664:4 666:7 667:2 669:2 670:1 671:1 672:2 674:1 680:2 686:2 687:3 689:6 690:1 692:5 693:2 694:3 700:2 701:5 705:9 706:1 710:2 711:6 714:1 715:2 716:1 717:1 720:3 721:1 723:2 725:1 726:2 728:3 729:12 731:1 733:1 734:4 735:3 736:2 737:2 739:6 741:1 743:1 745:5 747:2 749:1 751:1 755:1 760:1 761:1 763:3 765:11 766:3 767:2 768:2 770:2 771:3 772:1 774:3 782:1 784:3 785:3 790:7 792:1 795:1 796:4 797:1 798:1 799:6 800:2 801:15 805:2 806:3 815:5 817:8 818:2 821:1 822:2 824:1 825:2 826:1 828:1 831:2 833:1 836:3 837:2 845:4 848:14 850:2 851:3 853:1 857:1 861:4 862:5 863:1 864:1 868:4 872:2 874:2 876:4 877:2 880:2 884:1 887:1 888:4 889:3 895:4 896:2 897:1 899:1 900:6 902:1 904:1 905:2 909:6 910:2 919:3 920:4 923:2 925:5 928:2 933:1 934:1 937:1 939:2 941:2 944:2 947:4 950:2 953:2 954:1 955:2 956:2 957:2 960:1 963:1 967:2 971:2 972:3 974:4 976:1 980:1 982:3 983:5 985:6 992:1 994:5 997:1 998:1 999:1 1001:2 1002:1 1003:4 1004:2 1008:2 1009:2 1010:1 1011:1 1012:3 1016:1 1017:4 1018:10 1019:1 1021:1 1022:1 1023:2 1027:1 1036:1 1037:1 1039:4 1040:3 1042:4 1044:1 1046:1 1047:1 1050:1 1051:1 1053:5 1055:2 1056:7 1058:1 1059:5 1061:3 1063:1 1064:3 1067:1 1070:1 1071:2 1074:4 1075:8 1077:3 1078:1 1083:2 1085:4 1086:3 1087:1 1089:9 1091:1 1097:2 1099:2 1101:2 1104:2 1105:1 1106:5 1107:1 1108:1 1113:1 1117:2 1118:1 1119:3 1120:1 1121:5 1124:1 1125:1 1126:1 1128:4 1130:4 1132:1 1136:4 1139:1 1140:1 1142:2 1145:7 1150:2 1151:1 1153:2 1154:1 1155:3 1156:2 1157:1 1159:2 1162:1 1164:1 1170:1 1171:2 1172:3 1174:1 1175:2 1177:1 1184:3 1188:2 1192:5 1193:1 1198:2 1199:2 1201:1 1204:1 1205:1 1207:15 1212:11 1213:1 1217:1 1220:1 1221:1 1222:3 1223:2 1224:5 1225:1 1228:4 1229:12 1230:5 1232:4 1233:1 1235:2 1236:2 1237:2 1238:2 1245:1 1246:2 1248:1 1251:1 1252:1 1253:4 1254:1 1255:1 1257:1 1258:8 1260:1 1265:2 1266:10 1268:3 1270:6 1272:7 1273:3 1275:4 1277:2 1280:1 1282:1 1283:5 1286:1 1287:3 1290:1 1291:1 1293:5 1295:2 1296:2 1298:3 1300:7 1305:2 1311:4 1312:1 1313:3 1315:6 1316:1 1317:1 1319:8 1320:7 1322:2 1323:3 1326:1 1329:2 1330:1 1331:5 1334:2 1335:1 1336:5 1337:1 1338:1 1339:1 1342:2 1344:1 1345:1 1348:4 1351:1 1352:5 1353:2 1354:1 1356:1 1360:1 1361:1 1362:3 1367:4 1368:2 1369:1 1374:1 1375:1 1376:6 1379:4 1382:2 1383:1 1384:1 1388:3 1389:3 1391:2 1392:5 1396:2 1397:1 1399:1 1402:1 1403:2 1412:7 1413:1 1414:2 1419:9 1420:1 1422:1 1427:3 1429:5 1431:1 1435:1 1437:1 1440:1 1441:2 1442:1 1443:2 1446:3 1448:2 1451:1 1452:2 1453:4 1456:7 1461:4 1462:3 1463:1 1467:4 1468:1 1470:2 1471:2 1473:2 1474:4 1475:1 1477:2 1478:1 1480:1 1481:3 1482:2 1483:2 1484:1 1485:1 1486:1 1487:8 1489:1 1496:3 1497:1 1501:4 1502:2 1503:3 1507:5 1509:1 1511:1 1514:2 1519:2 1526:1 1528:3 1535:1 1537:1 1538:1 1540:1 1546:2 1556:1 1557:1 1559:5 1561:2 1562:1 1563:6 1568:1 1569:1 1570:1 1571:1 1572:1 1573:1 1577:2 1580:1 1584:1 1593:1 1595:1 1604:1 1606:1 1613:1 1616:1 1625:1 1628:2 1629:1 1634:1 1636:1 1641:2 1649:2 1650:1 1651:1 1667:2 1672:2 1673:1 1677:3 1679:1 1680:2 1681:1 1682:1 1687:2 1688:3 1694:1 1695:1 1699:1 1702:3 1715:1 1716:2 1717:1 1718:1 1720:3 1721:2 1724:2 1725:1 1727:1 1728:1 1731:3 1738:1 1740:1 1742:1 1744:1 1745:1 1755:1 1757:1 1760:1 1766:1 1768:1 1771:1 1776:1 1778:2 1779:1 1781:1 1786:1 1794:1 1795:1 1802:1 1804:1 1805:1 1807:1 1808:1 1811:1 1814:1 1816:1 1821:1 1826:1 1829:2 1835:1 1836:3 1838:2 1840:1 1844:1 1860:1 1865:1 1866:2 1871:1 1880:2 1881:1 1882:1 1883:1 1886:1 1892:1 1898:1 1904:6 1913:2 1915:2 1918:1 1919:3 1920:3 1927:2 1930:1 1944:2 1952:3 1956:1 1960:1 1964:2 1966:1 1967:1 1970:1 1974:1 1977:2 1987:1 1991:2 2000:1 2007:1 2011:1 2012:1 2020:1 2024:2 2028:1 2031:2 2035:1 2040:1 2049:2 2057:2 2061:1 2064:9 2065:2 2072:1 2085:1 2098:1 2104:1 2111:1 2113:1 2117:1 2119:1 2124:2 2125:1 2130:2 2133:1 2134:2 2140:1 2141:2 2142:2 2144:1 2158:1 2161:1 2163:1 2167:1 2174:1 2175:1 2176:1 2190:2 2193:2 2194:1 2196:1 2205:5 2207:2 2210:2 2213:1 2214:1 2230:1 2239:1 2245:1 2248:1 2249:1 2251:3 2258:3 2268:1 2269:1 2273:1 2274:2 2275:1 2277:1 2278:1 2280:1 2281:2 2283:1 2301:1 2309:1 2310:1 2311:2 2312:1 2314:1 2315:2 2316:1 2317:1 2321:2 2333:1 2335:2 2338:1 2339:1 2343:2 2349:1 2354:1 2359:2 2361:1 2367:1 2370:1 2372:1 2376:1 2379:2 2391:2 2392:1 2407:1 2410:2 2415:2 2418:1 2431:2 2432:1 2435:1 2453:1 2460:1 2462:1 2464:1 2470:1 2478:2 2480:2 2481:1 2486:1 2489:2 2497:1 2501:1 2505:1 2521:1 2528:1 2532:1 2540:3 2544:1 2547:2 2554:1 2555:2 2558:2 2559:4 2566:1 2570:2 2580:1 2585:2 2595:1 2597:5 2602:1 2603:2 2604:2 2606:1 2611:6 2618:3 2619:2 2623:1 2624:2 2625:1 2632:2 2636:1 2638:1 2640:1 2641:1 2643:2 2652:2 2653:2 2655:2 2662:1 2667:1 2669:1 2672:1 2673:1 2674:2 2676:2 2688:2 2690:1 2694:2 2700:1 2705:1 2709:1 2710:1 2712:1 2716:1 2720:1 2723:1 2725:1 2731:2 2733:1 2734:1 2737:1 2755:1 2760:1 2763:1 2764:1 2767:1 2774:1 2775:1 2777:2 2780:3 2781:1 2782:1 2783:1 2787:1 2793:1 2796:1 2799:1}\n'
tp10
a(S't # 9 * 82\n'
S'v 0 3\nv 1 3\n'
S'v 1 3\n'
S'e 0 1 0\n'
S'e 0 1 0\n'
S' {9:2 113:2 117:6 187:2 193:2 268:20 298:6 347:2 375:6 386:22 402:2 422:4 425:8 477:6 495:10 515:2 560:6 624:12 636:6 673:4 684:4 698:10 791:6 808:2 840:2 898:6 917:6 1084:8 1098:8 1115:10 1120:6 1168:12 1190:14 1195:6 1243:6 1306:6 1314:4 1347:6 1390:4 1395:4 1432:10 1488:8 1498:4 1531:2 1548:2 1601:2 1696:2 1787:2 1841:2 1851:2 1911:2 1914:4 1932:2 1996:4 2001:2 2021:2 2076:2 2088:2 2128:2 2192:2 2234:2 2261:2 2278:2 2285:2 2306:2 2319:2 2322:2 2324:2 2327:2 2434:6 2442:2 2478:2 2519:6 2586:4 2616:2 2634:2 2708:2 2717:2 2735:2 2747:6 2751:12 2770:2}\n'
tp11
a(S't # 10 * 321\n'
S'v 0 5\nv 1 5\n'
S'v 1 5\n'
S'e 0 1 0\n'
S'e 0 1 0\n'
S' {1:6 4:4 12:4 19:8 24:4 25:2 31:2 32:4 36:2 37:8 64:6 71:10 73:4 78:8 82:2 102:2 116:2 119:4 131:16 142:2 152:2 153:2 167:2 206:4 211:10 220:2 223:2 224:4 225:2 226:6 227:2 233:2 235:16 237:2 269:4 285:4 295:6 299:4 303:6 311:2 318:2 319:2 334:2 353:2 358:2 362:2 372:16 377:4 380:6 383:6 392:2 393:6 396:4 407:10 409:6 415:2 420:2 424:2 426:2 432:6 441:2 465:2 466:2 473:2 474:2 479:4 482:4 484:2 489:2 493:2 531:6 533:4 540:2 548:2 565:6 584:2 585:2 599:4 603:6 604:2 606:4 610:2 612:2 646:2 647:6 651:2 653:8 655:4 668:2 676:2 679:4 682:4 696:2 704:10 707:6 712:10 724:16 742:2 746:12 752:4 775:2 776:2 794:8 802:2 807:2 812:2 813:4 819:2 820:2 823:2 825:6 838:2 849:4 856:2 864:4 868:2 874:4 881:2 885:16 893:4 903:8 927:6 931:2 932:6 938:2 948:2 951:2 961:4 962:2 965:2 987:6 1014:2 1020:4 1030:2 1043:2 1048:6 1056:2 1058:4 1065:2 1066:8 1090:6 1093:12 1094:2 1095:10 1116:2 1123:2 1127:6 1148:2 1158:2 1160:2 1165:2 1187:2 1189:4 1200:10 1203:2 1216:4 1222:8 1224:2 1234:2 1241:18 1247:6 1259:14 1278:14 1288:4 1297:2 1309:10 1310:2 1321:2 1323:2 1327:2 1333:8 1350:2 1351:4 1353:2 1365:4 1369:6 1371:2 1373:2 1377:6 1381:4 1385:4 1386:2 1411:2 1415:2 1416:2 1417:4 1421:6 1424:10 1430:2 1434:4 1444:2 1452:4 1464:2 1466:2 1469:2 1490:4 1491:6 1492:26 1495:2 1497:2 1504:2 1508:2 1513:2 1518:2 1527:2 1533:2 1541:2 1550:2 1556:4 1557:4 1558:2 1593:2 1610:6 1624:2 1635:2 1644:2 1654:2 1659:2 1672:4 1686:2 1743:2 1758:2 1761:8 1782:2 1785:2 1796:2 1800:6 1816:2 1822:2 1830:4 1835:2 1836:2 1837:2 1838:4 1841:4 1844:2 1854:4 1864:2 1888:2 1941:2 1969:10 1982:2 1994:2 1998:2 2015:2 2044:2 2045:2 2047:4 2052:2 2064:2 2066:2 2078:2 2080:2 2084:2 2095:2 2112:6 2123:4 2138:2 2151:2 2160:4 2163:4 2168:2 2173:2 2185:2 2199:4 2212:2 2238:2 2243:2 2245:2 2246:2 2253:2 2277:2 2292:2 2308:2 2311:2 2345:2 2354:2 2357:2 2366:4 2369:8 2374:2 2386:2 2392:2 2404:2 2415:2 2436:6 2447:2 2450:2 2471:2 2474:4 2505:2 2517:2 2521:4 2528:2 2536:4 2537:4 2539:2 2545:4 2557:2 2559:4 2573:4 2592:2 2610:2 2637:2 2663:2 2673:2 2676:2 2688:2 2689:6 2692:2 2701:2 2703:4 2715:2 2721:2 2739:2 2759:2 2762:2 2771:4 2772:2 2773:2 2801:2}\n'
tp12
a(S't # 11 * 371\n'
S'v 0 4\nv 1 12\n'
S'v 1 12\n'
S'e 0 1 0\n'
S'e 0 1 0\n'
S' {10:1 38:1 42:1 46:1 47:1 67:1 85:1 90:1 94:1 98:1 103:1 107:1 108:1 110:1 126:1 127:1 136:2 141:2 149:2 165:1 168:5 170:2 180:1 205:1 207:1 208:2 220:1 222:1 223:2 224:1 241:1 245:1 262:1 273:3 280:1 319:1 326:1 327:1 329:1 337:1 339:4 345:1 350:3 398:2 399:1 405:1 440:2 447:1 465:1 466:1 479:1 486:1 508:3 525:1 526:3 540:1 556:1 565:1 570:1 571:1 581:1 617:3 618:1 622:1 632:1 637:2 660:2 667:1 669:3 672:1 681:1 700:2 725:1 729:1 735:1 743:1 751:1 752:1 760:1 761:2 765:2 784:1 787:1 789:2 801:1 805:1 812:1 823:1 827:3 829:1 833:1 843:1 845:3 848:2 868:3 893:1 925:2 932:3 941:1 942:1 943:1 947:2 957:1 965:1 970:1 989:1 998:1 999:2 1007:1 1010:1 1018:1 1020:2 1033:2 1039:4 1042:2 1048:2 1056:1 1058:1 1079:2 1087:1 1105:2 1108:1 1112:1 1114:1 1116:1 1118:1 1128:1 1134:1 1138:1 1140:1 1158:1 1184:2 1186:1 1203:1 1209:1 1222:6 1224:1 1247:3 1251:1 1256:1 1258:1 1270:4 1308:1 1312:5 1313:2 1314:1 1317:1 1320:1 1342:1 1351:1 1357:2 1360:1 1369:4 1374:1 1378:1 1379:1 1384:1 1394:2 1401:1 1420:1 1422:1 1429:2 1430:2 1447:1 1451:1 1453:1 1458:1 1467:2 1468:1 1489:1 1503:1 1509:2 1512:1 1513:1 1516:3 1521:2 1534:2 1564:2 1567:1 1570:1 1582:1 1598:2 1605:1 1606:1 1614:1 1617:1 1621:1 1622:1 1634:1 1642:1 1651:1 1652:1 1653:1 1658:1 1662:1 1667:1 1672:2 1673:1 1679:1 1681:1 1687:1 1712:1 1718:1 1719:1 1720:2 1721:2 1732:1 1742:1 1747:1 1769:1 1770:3 1778:2 1789:1 1801:1 1809:1 1811:1 1814:1 1816:1 1826:1 1827:1 1829:1 1833:1 1837:1 1844:1 1880:1 1888:1 1890:1 1892:2 1899:1 1904:1 1919:1 1924:1 1927:1 1932:1 1937:1 1948:1 1960:1 1962:1 1964:1 1966:1 1973:1 1977:2 1987:1 1995:1 1999:2 2009:1 2015:2 2045:1 2049:4 2057:1 2060:1 2062:1 2064:2 2068:1 2072:1 2076:1 2084:1 2096:1 2099:1 2103:1 2109:1 2124:1 2125:1 2153:1 2158:1 2174:2 2181:1 2194:1 2203:1 2205:1 2207:2 2208:1 2211:1 2212:2 2229:1 2237:2 2243:1 2258:1 2260:1 2269:1 2270:1 2274:1 2277:1 2280:1 2287:2 2290:1 2294:1 2296:1 2300:2 2301:1 2302:1 2305:1 2311:1 2312:1 2321:1 2327:1 2330:2 2343:1 2350:1 2351:1 2354:1 2357:1 2360:1 2370:1 2372:1 2375:1 2379:1 2386:1 2392:2 2399:1 2402:1 2410:1 2416:1 2417:2 2418:1 2419:1 2427:1 2450:1 2454:1 2469:1 2478:2 2479:1 2480:3 2484:1 2486:1 2492:1 2495:1 2498:1 2505:1 2514:1 2516:1 2521:2 2540:2 2547:1 2555:2 2583:2 2585:1 2606:1 2608:1 2611:1 2618:1 2621:1 2623:1 2632:1 2633:1 2649:1 2653:1 2657:1 2660:1 2663:1 2673:1 2679:2 2688:2 2690:1 2698:1 2699:1 2707:1 2715:1 2716:1 2727:1 2733:1 2737:1 2739:1 2743:1 2746:1 2750:1 2755:2 2764:1 2780:1 2781:1 2782:2}\n'
tp13
a(S't # 12 * 64\n'
S'v 0 10\nv 1 10\n'
S'v 1 10\n'
S'e 0 1 0\n'
S'e 0 1 0\n'
S' {9:2 34:2 72:4 77:12 83:26 151:6 173:4 174:6 268:8 298:6 351:6 384:6 403:6 422:2 434:2 450:6 518:4 624:4 813:2 831:6 832:12 886:2 942:2 949:2 975:4 977:6 1069:4 1112:6 1239:4 1276:8 1332:2 1364:22 1370:6 1472:2 1488:2 1523:2 1536:2 1725:2 1797:2 1798:2 1914:2 1939:2 2149:2 2189:4 2228:4 2242:2 2261:4 2265:2 2295:4 2327:4 2340:2 2388:4 2423:2 2443:2 2458:2 2461:2 2469:2 2575:2 2589:4 2666:2 2676:2 2680:2 2728:4 2788:2}\n'
tp14
a(S't # 13 * 701\n'
S'v 0 4\nv 1 4\n'
S'v 1 4\n'
S'e 0 1 1\n'
S'e 0 1 1\n'
S' {0:4 8:16 10:2 11:6 13:2 14:4 15:4 20:2 21:6 23:2 29:2 41:4 42:2 43:4 46:2 50:2 52:2 53:2 56:8 57:6 66:2 67:8 68:10 70:4 71:2 76:8 84:6 86:4 88:6 89:8 93:4 96:4 99:2 100:4 103:4 105:4 106:18 107:4 108:2 109:2 110:12 112:6 115:2 118:4 119:2 122:4 125:8 129:2 136:8 140:8 147:12 148:2 149:18 150:2 160:4 161:2 165:2 168:6 170:38 175:2 178:2 179:2 182:8 185:2 186:2 190:2 194:4 198:2 200:6 201:2 202:12 206:2 208:2 209:8 214:12 216:2 217:6 227:2 229:14 231:8 232:6 236:4 237:8 239:2 249:6 251:2 259:2 263:8 267:2 270:2 272:8 273:14 274:6 275:2 276:14 279:10 280:8 283:10 288:2 289:2 296:6 300:2 304:12 306:4 309:4 310:2 313:2 317:4 320:4 322:2 326:4 329:16 330:10 331:2 332:22 337:6 338:2 339:2 340:2 341:4 343:2 344:10 346:2 348:2 352:2 354:2 356:6 360:4 365:2 367:4 373:2 374:6 376:2 379:12 381:2 383:8 387:2 390:4 391:2 394:8 395:6 397:6 398:2 401:2 404:2 405:2 408:2 410:6 412:2 415:6 417:10 418:8 419:6 427:2 428:4 433:2 435:16 446:18 447:2 449:22 453:22 460:2 461:6 463:2 466:2 469:2 470:2 471:2 472:2 476:4 481:4 483:2 485:2 486:2 490:2 492:2 497:2 499:4 500:2 501:8 502:2 508:6 510:4 511:6 512:24 514:4 517:2 518:2 520:2 521:2 534:2 536:14 543:4 545:2 546:6 549:2 552:2 555:20 556:2 557:8 558:2 564:4 571:2 572:4 576:2 578:2 579:6 581:4 586:4 588:2 590:2 593:12 594:2 597:2 601:4 602:2 607:4 608:6 614:2 616:6 617:10 618:4 620:2 623:2 625:2 626:6 627:8 630:10 640:2 642:2 645:2 646:2 648:2 649:14 650:6 654:6 658:4 662:4 663:4 666:2 670:2 671:2 672:4 674:6 678:2 679:6 682:14 683:2 687:4 689:10 690:4 692:2 698:2 700:4 701:2 705:18 711:4 713:6 714:2 717:2 718:2 719:8 721:2 723:2 725:2 727:2 728:6 729:14 730:2 732:4 733:2 740:6 743:2 744:2 748:4 750:2 753:2 754:2 759:2 760:2 763:2 765:26 766:4 767:2 768:2 770:2 772:2 774:18 779:2 780:4 783:8 784:2 786:2 787:2 788:4 795:2 800:2 801:4 802:2 803:8 806:2 810:8 812:2 815:2 816:2 817:8 819:2 821:2 826:2 827:2 835:2 836:2 838:2 841:12 845:2 847:4 848:8 851:2 852:4 854:10 855:16 858:2 861:2 862:10 863:2 866:4 867:16 868:6 871:2 872:2 873:2 875:2 877:4 888:10 889:4 890:2 896:4 899:6 900:10 902:2 909:2 911:4 918:2 919:4 922:2 924:2 925:4 928:2 930:4 932:2 933:2 934:2 939:2 941:2 947:4 960:4 964:4 969:16 972:6 976:14 978:2 982:2 983:2 985:2 988:2 990:4 992:2 994:10 995:2 999:2 1002:4 1004:10 1009:2 1010:2 1012:4 1016:2 1017:2 1018:4 1021:4 1022:2 1027:2 1031:2 1032:2 1036:4 1039:20 1040:4 1041:8 1042:4 1045:4 1053:2 1056:10 1057:4 1059:6 1062:2 1066:2 1067:2 1070:4 1071:2 1072:4 1074:2 1075:6 1080:2 1082:8 1085:2 1089:6 1102:12 1103:4 1105:2 1106:4 1117:4 1125:2 1126:2 1130:4 1132:2 1136:8 1141:2 1144:2 1145:28 1147:2 1155:2 1162:2 1164:2 1167:4 1171:2 1177:2 1178:4 1180:4 1185:4 1192:4 1193:4 1196:8 1201:2 1206:6 1207:8 1208:16 1212:6 1213:4 1218:2 1221:2 1222:6 1224:4 1228:2 1229:4 1230:8 1231:2 1232:4 1236:10 1238:2 1247:2 1252:2 1253:8 1255:2 1258:4 1266:6 1268:4 1272:6 1273:4 1274:2 1281:4 1287:2 1290:2 1293:6 1296:2 1298:2 1300:4 1302:2 1311:18 1313:2 1315:8 1316:2 1319:12 1320:6 1323:6 1328:14 1331:2 1335:2 1336:4 1337:4 1338:2 1339:2 1341:4 1344:8 1346:2 1348:4 1351:4 1352:6 1353:6 1357:2 1359:2 1363:2 1366:14 1371:2 1372:8 1373:2 1376:2 1379:2 1382:2 1383:2 1387:6 1388:8 1389:2 1392:4 1394:2 1400:4 1403:2 1405:2 1406:2 1407:4 1412:8 1414:2 1418:6 1419:10 1426:8 1429:4 1431:2 1435:2 1436:2 1437:2 1438:4 1440:6 1443:6 1446:2 1448:2 1449:8 1450:4 1452:2 1456:8 1461:6 1462:12 1465:2 1467:4 1471:18 1474:2 1475:6 1476:2 1479:20 1481:2 1483:4 1485:2 1486:2 1487:12 1493:4 1499:2 1501:4 1503:2 1506:2 1509:2 1511:2 1516:2 1521:2 1528:2 1534:2 1559:4 1563:6 1570:2 1582:2 1590:2 1593:6 1595:4 1596:2 1598:4 1613:4 1628:2 1630:2 1637:2 1649:4 1651:2 1658:2 1672:2 1677:4 1680:4 1684:4 1688:2 1698:2 1702:2 1703:2 1716:4 1719:2 1737:2 1739:2 1756:2 1767:2 1770:2 1778:4 1787:2 1804:6 1811:2 1833:2 1844:2 1856:2 1866:2 1880:2 1892:2 1896:2 1908:4 1911:2 1913:4 1915:6 1920:2 1930:8 1932:2 1957:10 1959:6 1966:2 1967:2 1969:2 1977:4 1999:2 2009:2 2015:2 2024:4 2026:10 2030:6 2038:4 2042:2 2045:4 2049:6 2060:2 2064:10 2066:2 2084:2 2109:2 2120:2 2138:2 2141:6 2144:2 2158:2 2166:2 2168:6 2174:2 2188:2 2193:2 2204:2 2207:2 2210:2 2228:2 2236:2 2249:2 2251:2 2269:2 2275:2 2287:2 2292:2 2297:4 2300:4 2301:2 2312:12 2314:2 2317:4 2330:2 2343:4 2370:2 2392:2 2403:8 2410:2 2417:2 2418:2 2440:2 2454:2 2478:2 2480:6 2494:2 2495:6 2498:2 2518:2 2521:2 2528:2 2540:4 2546:2 2547:2 2555:2 2558:2 2559:4 2576:4 2583:2 2597:8 2611:6 2618:8 2619:2 2621:6 2624:2 2631:12 2635:2 2637:2 2640:2 2649:2 2652:2 2668:2 2679:2 2688:4 2690:4 2698:2 2699:2 2712:2 2733:4 2755:2 2765:2 2766:4 2778:2 2782:2 2789:2}\n'
tp15
a(S't # 14 * 82\n'
S'v 0 1\nv 1 8\n'
S'v 1 8\n'
S'e 0 1 0\n'
S'e 0 1 0\n'
S' {40:1 113:1 155:7 243:2 250:1 359:2 365:1 371:2 544:1 571:1 879:2 945:1 1096:1 1109:5 1137:8 1141:1 1167:3 1176:1 1235:1 1261:2 1271:2 1439:2 1460:3 1547:1 1579:2 1646:1 1671:1 1706:1 1734:1 1749:1 1765:1 1778:1 1878:1 1893:1 1895:1 1904:1 1919:1 1929:1 1935:1 1951:1 1968:1 1994:2 2041:1 2063:1 2081:1 2082:1 2095:1 2096:1 2110:1 2172:2 2199:1 2203:1 2220:1 2247:1 2284:1 2310:1 2323:1 2342:1 2345:2 2375:1 2380:1 2429:1 2471:1 2493:1 2504:2 2512:1 2520:1 2530:2 2566:1 2579:1 2599:1 2619:2 2626:1 2629:1 2639:1 2649:1 2664:1 2671:1 2718:1 2727:1 2734:1 2767:1}\n'
tp16
a(S't # 15 * 380\n'
S'v 0 5\nv 1 11\n'
S'v 1 11\n'
S'e 0 1 0\n'
S'e 0 1 0\n'
S' {5:1 12:2 19:2 25:1 27:1 32:1 36:1 46:1 52:1 60:3 64:1 66:2 82:1 87:4 120:2 123:1 135:1 137:2 144:3 153:1 154:2 166:2 173:2 175:2 180:1 205:1 207:1 209:1 210:2 218:1 224:1 227:2 241:1 246:1 260:1 262:2 264:1 267:1 274:1 280:1 281:1 294:1 299:1 304:1 307:1 311:2 326:1 327:1 329:1 337:1 339:3 365:1 388:1 415:1 416:3 465:1 466:1 480:4 483:1 493:3 504:1 509:1 542:1 544:1 546:1 556:1 565:1 581:1 611:1 618:2 634:1 645:1 667:1 668:1 669:1 673:1 685:1 694:1 696:1 700:2 761:1 775:1 781:1 784:1 823:1 829:1 848:2 851:1 861:1 864:2 868:1 874:2 897:2 904:2 931:1 932:1 938:1 947:2 948:1 957:3 963:1 965:1 967:2 980:2 989:1 998:1 1014:2 1019:1 1020:2 1026:2 1034:2 1047:1 1048:1 1049:1 1052:1 1056:1 1078:1 1112:1 1117:1 1149:1 1158:1 1182:1 1186:2 1207:4 1217:1 1222:1 1224:1 1225:1 1242:2 1263:1 1274:1 1289:1 1296:2 1298:1 1313:3 1320:1 1326:1 1351:1 1360:1 1369:3 1374:2 1375:1 1378:1 1379:2 1381:1 1384:1 1389:2 1392:1 1396:1 1401:1 1405:1 1413:1 1423:1 1442:1 1443:1 1452:1 1453:1 1467:1 1469:2 1478:1 1489:1 1497:1 1503:1 1509:1 1519:1 1527:2 1540:1 1548:1 1554:1 1557:1 1561:1 1567:1 1578:1 1580:1 1585:1 1606:1 1607:3 1620:1 1623:1 1626:2 1634:1 1638:1 1643:1 1649:1 1651:1 1660:1 1672:1 1673:1 1678:1 1680:2 1681:1 1682:1 1683:1 1686:1 1688:1 1692:1 1699:1 1710:1 1715:1 1721:2 1724:1 1731:1 1741:1 1742:2 1745:2 1754:1 1757:1 1761:1 1766:1 1770:1 1776:1 1781:1 1802:3 1804:1 1811:1 1818:1 1824:1 1828:1 1829:1 1835:2 1836:1 1844:2 1849:1 1852:2 1853:1 1864:1 1869:1 1876:2 1883:1 1887:2 1890:1 1892:1 1894:1 1904:5 1912:1 1913:2 1916:1 1919:1 1920:1 1931:1 1937:1 1943:1 1946:1 1952:2 1960:1 1970:1 1973:1 1982:2 1995:1 2007:1 2008:1 2012:2 2021:1 2031:1 2044:1 2045:1 2052:1 2057:1 2064:3 2072:1 2073:1 2079:1 2086:1 2119:1 2123:1 2144:1 2162:1 2163:2 2167:1 2168:1 2174:1 2176:2 2182:3 2185:1 2199:1 2213:1 2226:1 2227:1 2230:1 2233:1 2243:2 2249:1 2251:2 2253:1 2258:1 2260:1 2263:2 2269:1 2274:1 2275:1 2277:2 2278:1 2294:1 2302:1 2309:1 2315:1 2333:1 2348:1 2352:1 2359:1 2362:1 2368:1 2369:1 2370:2 2379:1 2384:2 2392:2 2398:1 2401:1 2402:1 2415:1 2418:1 2420:1 2436:4 2440:1 2444:1 2447:1 2459:2 2460:1 2467:1 2478:1 2486:1 2515:1 2524:1 2528:1 2537:3 2540:2 2545:2 2547:1 2548:4 2550:1 2555:1 2558:1 2559:1 2566:1 2573:1 2581:1 2585:1 2587:1 2590:1 2595:1 2597:1 2603:1 2604:2 2606:1 2611:1 2613:1 2618:2 2619:1 2623:1 2625:1 2632:1 2636:1 2640:1 2643:1 2652:1 2657:1 2661:1 2662:1 2663:1 2669:2 2670:1 2673:3 2676:2 2685:2 2688:1 2689:1 2692:3 2709:1 2719:1 2737:1 2743:1 2756:1 2761:1 2763:1 2765:1 2767:1 2781:1 2785:1 2796:1}\n'
tp17
a(S't # 16 * 410\n'
S'v 0 11\nv 1 12\n'
S'v 1 12\n'
S'e 0 1 0\n'
S'e 0 1 0\n'
S' {1:1 2:1 5:2 12:2 18:1 25:1 33:2 36:1 38:1 47:1 54:2 55:1 82:2 85:1 94:1 98:2 107:1 110:1 127:1 139:1 157:3 159:1 163:1 165:1 170:1 172:1 175:1 188:1 205:1 206:1 212:3 222:4 233:2 245:1 259:1 270:1 278:1 281:1 292:2 302:2 307:2 311:1 313:1 316:1 326:1 327:1 328:1 329:2 337:3 339:1 345:1 365:3 400:1 405:1 407:1 411:1 414:1 428:1 439:6 440:2 444:1 447:3 462:1 480:4 483:1 493:3 507:1 508:1 509:1 513:1 526:1 535:1 539:1 556:2 559:4 565:1 568:1 571:1 581:1 617:5 618:1 622:1 641:1 644:1 646:1 656:2 660:1 667:2 669:7 672:1 681:1 685:1 695:2 712:4 722:2 729:1 735:1 738:5 739:1 752:1 761:1 765:1 773:1 775:3 781:3 782:1 784:2 801:2 804:2 811:1 814:1 825:1 827:1 833:1 842:1 845:2 848:4 860:1 864:2 874:1 884:1 913:2 914:2 920:1 925:1 931:1 932:2 935:2 938:1 940:2 941:1 947:1 954:1 957:1 958:1 967:1 974:1 987:1 1010:1 1011:2 1039:4 1048:2 1056:1 1058:2 1087:1 1089:1 1105:1 1108:1 1110:2 1111:1 1113:1 1118:1 1122:2 1128:2 1140:1 1146:2 1149:1 1153:2 1161:1 1169:3 1174:1 1175:1 1181:1 1182:1 1184:1 1186:1 1202:2 1207:1 1215:1 1222:1 1224:2 1225:1 1229:1 1237:1 1240:4 1245:2 1248:1 1251:2 1258:1 1270:13 1293:1 1299:2 1303:1 1308:1 1312:1 1313:2 1317:1 1320:1 1325:1 1337:3 1357:1 1369:2 1374:2 1379:1 1392:1 1404:1 1413:1 1420:1 1422:1 1423:1 1430:2 1451:1 1453:1 1467:6 1468:2 1474:2 1481:4 1489:1 1504:1 1505:1 1509:2 1516:1 1530:1 1546:1 1554:1 1556:1 1557:2 1568:2 1575:1 1578:2 1585:2 1593:1 1595:1 1597:1 1598:2 1603:1 1606:1 1610:1 1618:1 1626:1 1628:3 1636:1 1638:1 1641:1 1644:1 1660:1 1667:1 1672:1 1686:1 1692:1 1718:1 1720:3 1721:1 1724:1 1741:1 1742:1 1745:1 1748:1 1766:1 1770:1 1773:1 1778:1 1781:1 1782:1 1802:1 1808:1 1814:1 1816:1 1818:1 1824:1 1826:1 1828:1 1829:2 1837:1 1838:1 1843:1 1851:1 1854:1 1864:2 1867:1 1875:1 1876:1 1885:1 1892:1 1904:1 1908:1 1913:1 1916:1 1932:1 1958:1 1966:1 1970:1 1982:1 1987:1 1991:1 1998:1 2005:1 2021:1 2031:1 2038:2 2042:2 2044:1 2049:1 2057:1 2064:2 2067:1 2069:1 2073:1 2078:1 2086:1 2087:1 2104:1 2107:1 2108:1 2111:1 2116:1 2117:1 2120:1 2124:2 2129:1 2133:1 2137:1 2141:1 2158:1 2163:2 2165:1 2168:1 2177:2 2185:1 2194:1 2197:1 2201:1 2205:1 2207:1 2220:1 2226:2 2228:1 2230:1 2237:1 2246:1 2249:1 2256:2 2262:1 2263:1 2269:1 2275:1 2276:2 2278:1 2280:1 2293:1 2311:1 2314:2 2321:2 2333:1 2334:1 2343:1 2344:1 2354:1 2365:1 2370:1 2379:1 2390:1 2410:1 2417:1 2440:1 2443:1 2445:1 2453:1 2459:1 2460:2 2474:1 2478:1 2480:2 2499:1 2505:2 2521:2 2524:1 2540:1 2545:1 2548:1 2555:1 2559:1 2561:1 2563:2 2564:2 2570:1 2585:1 2594:1 2603:4 2606:1 2611:1 2613:1 2615:1 2624:1 2632:1 2633:1 2643:1 2657:2 2662:1 2663:1 2673:1 2680:1 2689:1 2690:1 2705:1 2710:1 2716:1 2719:1 2733:2 2735:1 2737:1 2739:1 2743:1 2746:1 2749:1 2772:2 2780:3 2781:1 2785:2 2789:1}\n'
tp18
a(S't # 17 * 398\n'
S'v 0 5\nv 1 12\n'
S'v 1 12\n'
S'e 0 1 2\n'
S'e 0 1 2\n'
S' {1:5 5:2 19:3 24:1 25:2 32:1 33:1 36:2 37:2 38:1 71:10 73:7 82:4 87:1 91:5 102:1 116:1 120:1 127:9 130:1 141:1 152:1 163:1 167:1 176:1 204:1 206:3 210:2 223:1 224:1 225:1 226:2 233:1 235:3 241:4 244:1 257:1 264:1 284:1 285:1 299:2 301:1 302:6 303:3 311:1 318:1 319:2 334:1 337:1 339:2 350:2 353:3 358:1 362:2 365:1 377:2 392:1 393:1 398:1 407:4 413:1 416:1 424:1 426:1 432:3 441:1 464:1 466:1 479:4 482:2 483:1 491:1 493:2 506:1 509:2 532:2 540:1 553:1 565:1 583:1 584:1 604:1 611:1 618:1 621:2 637:1 641:2 655:2 667:1 669:10 676:1 681:1 700:2 702:1 712:15 724:2 742:1 746:10 752:2 761:1 775:2 781:2 784:1 789:1 792:1 807:1 812:2 820:2 823:2 843:1 846:1 849:2 856:1 864:3 865:1 874:1 892:3 893:4 903:5 927:1 931:1 932:2 938:1 947:1 961:1 965:1 970:1 986:2 987:2 993:1 998:1 1005:1 1006:1 1020:5 1025:3 1030:1 1048:8 1056:2 1058:3 1065:1 1090:1 1093:1 1095:7 1116:1 1127:2 1134:1 1148:1 1149:2 1158:1 1160:1 1186:1 1187:1 1203:1 1216:3 1222:2 1226:1 1242:2 1247:5 1251:1 1269:1 1278:8 1288:3 1297:1 1309:6 1312:2 1321:1 1326:1 1333:2 1353:3 1355:1 1369:6 1374:2 1377:2 1384:1 1385:1 1410:2 1415:2 1423:1 1424:2 1430:4 1447:1 1457:3 1458:1 1467:1 1490:1 1494:1 1503:1 1504:4 1508:1 1509:1 1512:1 1513:2 1518:1 1530:1 1533:3 1534:1 1554:1 1556:1 1557:3 1558:1 1582:1 1587:2 1593:2 1594:3 1598:1 1605:1 1606:1 1610:2 1620:1 1635:1 1636:1 1638:1 1644:2 1672:1 1673:1 1682:1 1686:2 1690:1 1692:1 1701:2 1702:1 1703:1 1709:1 1715:3 1720:1 1724:1 1730:1 1742:1 1743:2 1759:1 1761:2 1766:1 1770:2 1782:1 1785:2 1790:1 1800:2 1806:1 1808:1 1810:1 1818:1 1824:1 1830:3 1837:3 1841:4 1842:1 1844:2 1852:2 1854:2 1864:2 1867:1 1875:1 1876:1 1878:1 1888:2 1890:1 1895:1 1908:1 1918:1 1919:1 1920:1 1921:1 1931:1 1932:1 1941:2 1952:1 1958:1 1960:1 1966:1 1969:2 1982:1 1992:1 1995:3 2004:1 2005:1 2021:1 2029:1 2033:2 2038:1 2042:1 2044:1 2052:1 2064:3 2067:1 2078:2 2086:1 2087:1 2115:1 2123:2 2133:1 2137:1 2153:2 2155:1 2160:1 2163:3 2167:2 2168:1 2173:1 2177:1 2184:1 2185:1 2197:1 2199:1 2209:1 2212:1 2219:1 2220:2 2228:1 2229:2 2237:1 2238:2 2242:1 2243:2 2252:1 2260:1 2262:1 2264:1 2274:1 2277:1 2284:1 2288:1 2294:1 2298:1 2299:1 2302:1 2309:1 2311:1 2345:3 2354:1 2357:1 2365:1 2370:1 2375:1 2386:3 2392:1 2402:1 2410:1 2412:1 2417:1 2419:2 2427:1 2447:1 2449:1 2464:1 2474:1 2478:1 2498:1 2505:1 2509:1 2517:4 2521:1 2526:1 2527:1 2530:2 2539:1 2545:1 2547:1 2548:1 2561:1 2573:2 2575:2 2581:1 2590:2 2601:1 2603:1 2608:1 2610:2 2613:1 2623:1 2626:1 2629:1 2635:1 2643:1 2657:4 2659:2 2663:2 2669:2 2670:1 2673:3 2676:2 2688:1 2689:1 2703:2 2707:1 2715:1 2716:1 2717:1 2721:1 2737:1 2743:6 2749:1 2750:1 2755:1 2758:1 2762:1 2764:1 2771:1 2776:1}\n'
tp19
a(S't # 18 * 43\n'
S'v 0 8\nv 1 8\n'
S'v 1 8\n'
S'e 0 1 0\n'
S'e 0 1 0\n'
S' {51:4 155:4 321:4 550:2 830:6 945:2 1093:2 1109:6 1135:8 1167:2 1183:6 1261:2 1284:2 1439:2 1460:2 1551:2 1553:2 1591:2 1635:4 1671:2 1708:4 1735:2 1846:2 1917:2 1968:2 1998:2 2033:2 2103:2 2136:2 2150:2 2248:2 2289:2 2362:2 2437:2 2547:2 2549:2 2563:2 2605:2 2619:2 2712:4 2744:2 2776:2 2784:2}\n'
tp20
a(S't # 19 * 67\n'
S'v 0 6\nv 1 13\n'
S'v 1 13\n'
S'e 0 1 0\n'
S'e 0 1 0\n'
S' {17:2 40:1 91:2 180:1 192:1 226:1 247:1 355:1 551:3 669:2 846:2 901:2 1013:1 1166:3 1285:1 1324:1 1540:1 1546:2 1555:1 1558:1 1618:1 1700:1 1701:1 1720:1 1721:1 1795:1 1804:1 1854:1 1864:1 1888:1 1901:1 1908:1 1943:1 1994:1 2023:1 2109:1 2138:1 2141:1 2146:1 2168:3 2187:1 2189:1 2219:2 2238:2 2307:1 2318:1 2330:2 2343:1 2352:1 2366:1 2417:1 2430:1 2442:1 2462:1 2491:1 2527:1 2550:1 2555:1 2561:1 2584:1 2649:1 2651:1 2708:1 2721:1 2756:1 2764:1 2793:1}\n'
tp21
a(S't # 20 * 89\n'
S'v 0 10\nv 1 11\n'
S'v 1 11\n'
S'e 0 1 0\n'
S'e 0 1 0\n'
S' {19:1 34:3 89:1 110:1 154:1 180:1 406:1 518:2 650:1 692:1 741:1 784:5 831:3 882:1 891:1 1044:1 1069:2 1107:1 1112:2 1120:1 1139:1 1143:2 1220:1 1332:2 1364:2 1379:1 1454:1 1523:1 1554:1 1559:2 1603:1 1623:1 1629:1 1643:1 1650:1 1666:4 1687:2 1702:1 1725:1 1755:1 1771:1 1818:1 1885:1 1939:1 1966:1 1972:1 1975:2 1989:1 2007:1 2018:1 2075:2 2091:1 2099:2 2117:1 2128:1 2149:1 2167:1 2193:1 2207:1 2214:1 2302:1 2309:1 2327:1 2353:2 2375:1 2379:1 2402:1 2435:1 2443:1 2462:1 2469:1 2519:1 2527:1 2540:1 2595:1 2604:1 2615:3 2621:1 2651:1 2653:1 2658:2 2674:1 2680:1 2714:1 2720:1 2738:1 2764:1 2770:2 2785:1}\n'
tp22
a(S't # 21 * 86\n'
S'v 0 3\nv 1 4\n'
S'v 1 4\n'
S'e 0 1 0\n'
S'e 0 1 0\n'
S' {81:1 113:1 119:1 135:1 173:1 180:1 193:2 255:1 256:1 261:1 280:5 349:1 497:1 518:2 554:1 570:1 637:1 692:1 698:3 705:1 707:1 718:3 741:2 754:1 765:1 868:1 922:2 948:1 962:1 1005:1 1007:1 1274:1 1317:1 1375:1 1488:1 1594:1 1601:1 1613:2 1638:1 1649:2 1664:1 1668:2 1687:1 1688:1 1738:2 1787:1 1795:1 1802:1 1805:1 1822:3 1841:1 1905:1 1913:2 1949:1 1952:1 1957:2 1963:1 1991:1 2001:2 2038:2 2040:1 2249:2 2278:1 2287:2 2330:2 2340:1 2434:2 2445:1 2466:1 2476:1 2482:1 2514:1 2580:2 2586:3 2616:1 2638:1 2655:1 2673:1 2676:1 2690:2 2705:1 2709:1 2728:1 2738:1 2746:1 2754:1}\n'
tp23
a(S't # 22 * 373\n'
S'v 0 11\nv 1 11\n'
S'v 1 11\n'
S'e 0 1 3\n'
S'e 0 1 3\n'
S' {5:2 12:6 30:2 33:2 41:2 43:8 45:16 50:4 52:2 53:2 54:14 56:8 57:12 69:2 81:2 87:2 94:4 98:2 100:2 107:2 115:2 125:6 134:4 136:2 138:2 145:38 157:30 170:4 177:4 178:12 180:2 184:2 186:2 191:20 196:8 201:2 209:2 212:2 214:6 215:2 216:2 217:2 221:2 222:4 227:4 230:4 231:6 232:2 233:2 248:2 254:2 259:2 265:6 267:2 273:4 279:6 287:22 291:2 293:6 300:4 309:6 310:2 320:2 323:2 326:2 327:14 329:10 333:14 337:2 339:2 342:2 354:2 356:8 360:4 373:2 374:2 379:2 391:6 397:2 405:2 408:38 439:14 442:4 443:2 444:2 446:18 447:6 448:6 449:8 456:2 457:2 458:30 462:6 468:4 469:2 470:2 480:18 485:12 486:4 493:6 497:2 500:4 501:8 502:6 503:2 510:2 512:2 530:6 542:2 543:2 549:2 552:10 556:2 559:2 568:2 571:2 572:2 576:2 581:12 586:2 587:4 595:2 597:2 598:2 608:2 614:2 616:2 617:4 618:6 619:2 622:4 627:10 630:2 639:10 640:4 642:2 643:2 645:6 648:2 650:2 652:2 654:2 656:4 664:2 666:8 669:2 686:2 689:2 691:30 692:12 701:2 703:12 705:8 711:10 715:6 720:2 722:12 727:2 728:4 729:4 735:2 738:2 739:8 745:2 752:2 756:10 758:4 763:2 765:4 769:2 770:2 772:4 773:6 781:2 790:22 795:2 796:22 799:4 801:22 806:2 809:2 815:2 817:6 831:6 834:2 836:2 845:2 848:10 851:2 859:6 864:6 868:4 872:2 876:4 877:2 888:2 895:4 896:2 900:2 909:4 914:16 919:4 936:46 940:8 946:14 947:2 967:2 974:4 981:2 982:2 983:2 985:2 989:2 994:2 1003:4 1004:2 1011:2 1015:2 1018:6 1020:2 1034:2 1035:2 1039:2 1051:2 1053:2 1056:4 1061:2 1069:2 1074:2 1075:2 1077:18 1081:4 1085:6 1086:2 1089:2 1106:10 1110:6 1121:8 1128:2 1130:6 1133:2 1145:2 1146:2 1152:6 1153:6 1169:2 1170:10 1172:2 1174:10 1197:4 1198:4 1207:10 1211:2 1212:6 1219:4 1223:14 1224:2 1228:16 1229:10 1230:2 1232:4 1240:6 1245:4 1258:8 1266:18 1270:10 1275:18 1283:4 1287:4 1291:2 1293:2 1298:2 1299:2 1300:4 1313:6 1315:8 1319:4 1320:10 1325:2 1331:6 1335:4 1336:2 1337:6 1342:4 1345:6 1348:6 1352:6 1367:2 1374:2 1376:4 1379:4 1389:4 1409:16 1412:10 1414:2 1419:10 1427:2 1429:4 1443:2 1448:2 1453:2 1456:2 1462:2 1467:18 1474:4 1481:16 1486:2 1487:6 1501:2 1506:2 1507:4 1509:2 1510:2 1516:2 1519:2 1528:2 1546:2 1557:2 1561:2 1563:6 1593:2 1598:2 1617:2 1666:2 1685:2 1718:2 1802:2 1829:4 1836:2 1876:2 1904:4 1911:2 1912:2 1919:4 1920:2 2024:2 2030:2 2031:2 2057:2 2064:10 2072:2 2075:2 2141:2 2144:2 2162:2 2163:2 2177:2 2205:2 2243:2 2251:4 2263:2 2312:6 2317:4 2359:2 2379:2 2402:2 2410:2 2436:4 2440:2 2459:2 2478:2 2480:2 2540:2 2545:2 2585:2 2597:4 2632:2 2633:2 2673:2 2676:2 2714:38 2780:4 2789:4}\n'
tp24
a(S't # 23 * 113\n'
S'v 0 1\nv 1 4\n'
S'v 1 4\n'
S'e 0 1 0\n'
S'e 0 1 0\n'
S' {81:1 237:2 251:1 347:1 571:3 682:2 784:1 792:1 948:1 1037:1 1141:2 1167:1 1271:1 1340:1 1386:2 1462:2 1513:1 1521:1 1547:1 1557:1 1561:1 1588:1 1602:1 1636:1 1646:1 1648:1 1649:2 1656:1 1675:1 1680:1 1684:1 1702:2 1723:1 1734:1 1737:1 1740:1 1750:1 1762:1 1763:1 1767:2 1778:1 1789:1 1801:1 1816:1 1829:1 1848:1 1861:1 1862:1 1866:1 1868:1 1882:1 1889:1 1893:1 1898:1 1960:1 1989:1 2006:1 2007:1 2016:2 2027:1 2035:1 2036:1 2041:1 2048:1 2068:1 2071:1 2143:1 2151:1 2161:1 2163:1 2166:2 2167:1 2211:1 2235:1 2247:1 2258:1 2305:1 2310:1 2323:1 2329:1 2338:1 2355:1 2406:1 2408:1 2451:1 2456:1 2477:1 2480:2 2484:1 2506:1 2520:1 2525:1 2527:1 2556:1 2577:1 2579:1 2600:1 2608:1 2622:1 2628:1 2637:1 2642:1 2647:1 2656:1 2686:1 2712:1 2752:1 2767:1 2772:1 2780:2 2789:1 2791:1 2799:1}\n'
tp25
a(S't # 24 * 293\n'
S'v 0 5\nv 1 5\n'
S'v 1 5\n'
S'e 0 1 1\n'
S'e 0 1 1\n'
S' {1:4 4:6 5:2 12:2 19:6 24:2 32:2 35:2 37:6 60:2 64:4 71:16 73:4 78:8 87:6 91:4 120:2 127:6 130:2 131:16 142:2 175:2 206:6 210:2 211:10 218:2 224:2 226:4 235:14 241:4 244:2 262:2 269:2 285:2 295:4 299:2 301:2 302:6 303:4 321:4 334:2 339:2 362:4 372:14 377:4 380:4 383:10 388:2 393:4 396:2 407:12 409:4 413:2 424:2 432:6 452:2 466:2 479:6 482:4 483:4 484:2 489:2 506:2 531:4 532:6 533:2 553:2 565:6 577:6 585:2 591:2 599:2 603:4 606:2 631:2 646:2 647:4 653:8 655:2 669:4 676:2 679:10 682:4 702:2 704:8 707:2 712:6 724:16 746:16 752:2 793:2 794:8 812:2 813:2 825:4 838:2 846:4 849:2 864:2 874:2 885:14 892:2 893:4 903:4 927:4 932:6 947:2 961:2 967:2 986:2 987:4 999:2 1020:6 1026:2 1030:2 1043:2 1048:8 1052:2 1056:2 1058:4 1066:8 1078:2 1090:6 1093:10 1095:12 1116:2 1123:2 1127:4 1167:2 1187:4 1189:2 1200:8 1207:2 1216:4 1222:8 1234:2 1241:20 1242:2 1247:6 1259:12 1269:2 1271:4 1278:18 1288:4 1296:2 1309:10 1326:2 1327:2 1333:6 1351:2 1353:4 1355:2 1365:2 1369:6 1377:4 1381:2 1385:2 1396:2 1408:2 1417:2 1421:4 1424:12 1434:6 1444:2 1452:2 1457:2 1458:2 1464:2 1467:2 1469:2 1490:2 1491:4 1492:30 1494:2 1495:2 1518:2 1524:2 1527:2 1533:2 1541:2 1556:2 1567:2 1587:2 1594:4 1607:6 1610:4 1620:2 1635:2 1644:2 1645:2 1670:2 1672:4 1682:2 1702:2 1703:4 1715:4 1758:2 1761:6 1785:4 1795:2 1800:6 1822:2 1830:4 1837:2 1838:2 1841:8 1844:6 1852:2 1854:2 1878:2 1904:2 1908:2 1913:2 1918:2 1941:2 1969:10 1973:2 1982:2 1990:2 1994:2 2015:2 2045:2 2047:2 2079:2 2080:2 2112:4 2119:2 2123:2 2151:2 2153:2 2160:2 2163:2 2168:2 2173:2 2182:2 2199:2 2220:2 2225:2 2229:2 2243:2 2263:2 2291:2 2292:4 2299:2 2325:2 2365:2 2366:4 2369:6 2375:2 2384:2 2412:2 2417:2 2419:2 2436:4 2450:2 2455:2 2464:2 2474:4 2495:2 2509:2 2515:2 2517:4 2521:2 2527:2 2530:2 2536:2 2537:2 2545:2 2548:2 2550:2 2559:2 2561:2 2573:2 2575:2 2581:2 2610:6 2613:2 2618:4 2623:2 2650:2 2657:2 2669:2 2670:2 2676:2 2687:2 2688:2 2689:4 2692:8 2703:2 2719:2 2743:6 2750:4 2771:2}\n'
tp26
a(S't # 25 * 30\n'
S'v 0 9\nv 1 9\n'
S'v 1 9\n'
S'e 0 1 0\n'
S'e 0 1 0\n'
S' {22:2 72:12 113:2 324:6 550:10 823:2 840:4 891:2 979:6 1076:8 1271:2 1301:10 1343:20 1532:4 1565:2 1700:2 1789:2 1797:2 1834:2 1943:2 2013:2 2132:2 2250:2 2267:2 2280:2 2296:2 2307:2 2423:2 2511:2 2644:2}\n'
tp27
a(S't # 26 * 23\n'
S'v 0 0\nv 1 7\n'
S'v 1 7\n'
S'e 0 1 0\n'
S'e 0 1 0\n'
S' {48:1 101:1 251:2 367:1 431:3 561:4 629:1 717:1 762:4 818:1 1096:2 1539:1 1611:1 1688:1 1761:1 2107:1 2178:1 2229:1 2335:1 2370:1 2397:1 2643:1 2697:2}\n'
tp28
a(S't # 27 * 398\n'
S'v 0 4\nv 1 4\n'
S'v 1 4\n'
S'e 0 1 3\n'
S'e 0 1 3\n'
S' {0:2 8:12 11:2 12:2 21:2 34:2 41:2 43:4 56:2 57:6 66:4 67:4 68:6 71:2 76:4 84:2 88:4 94:2 98:2 100:2 106:12 107:2 110:8 112:4 118:2 125:4 136:6 140:4 144:2 146:2 147:6 149:16 168:8 170:42 173:4 178:2 182:4 193:2 194:2 200:4 201:2 202:8 209:10 214:16 216:4 217:8 222:2 227:4 229:8 230:2 231:6 232:8 237:10 254:2 259:2 262:2 263:4 272:4 273:8 274:4 275:2 276:10 279:8 280:4 281:4 283:2 296:2 300:2 304:6 320:4 326:6 327:4 329:8 330:4 332:24 337:2 339:6 344:6 350:2 354:4 356:2 360:4 365:2 367:2 374:2 379:8 383:2 394:4 395:2 397:6 398:2 399:2 405:2 408:2 415:2 417:6 418:4 419:2 428:2 435:12 438:2 440:2 446:26 449:16 453:18 485:6 499:2 500:2 508:2 510:6 511:2 512:18 530:6 536:10 543:2 546:2 552:2 555:18 556:8 557:6 564:2 571:4 572:2 576:2 581:2 586:2 593:10 597:4 614:4 616:4 617:4 618:4 622:2 626:2 627:8 630:4 640:2 642:2 646:2 650:6 654:6 662:2 666:2 667:2 674:2 679:10 681:2 682:10 687:4 689:4 701:2 705:16 711:4 717:2 719:4 723:2 728:4 729:12 734:4 735:2 739:4 740:2 741:2 745:4 757:2 763:2 765:40 768:2 771:2 774:14 784:2 785:2 790:2 796:2 799:4 801:10 810:4 817:8 818:2 838:2 841:8 845:4 848:16 854:6 855:12 861:2 862:8 867:12 868:2 877:2 885:2 888:6 889:2 895:2 896:2 900:8 909:2 919:2 920:2 925:2 947:4 957:2 960:2 969:12 972:2 976:10 982:2 983:2 985:4 994:8 1002:2 1004:4 1012:2 1017:2 1018:8 1021:2 1036:2 1039:24 1040:4 1042:2 1053:4 1056:4 1059:6 1064:2 1075:6 1082:4 1085:2 1089:4 1097:2 1102:8 1106:2 1119:2 1121:2 1128:2 1130:4 1136:2 1145:24 1155:2 1184:2 1192:2 1196:4 1206:2 1207:6 1208:10 1212:8 1213:2 1222:4 1224:6 1229:4 1230:6 1232:4 1236:4 1253:4 1258:6 1266:6 1268:2 1270:4 1272:6 1275:2 1283:2 1293:6 1300:2 1311:14 1313:4 1315:10 1319:8 1320:2 1323:2 1328:10 1331:2 1336:2 1337:2 1344:4 1348:2 1351:2 1352:4 1353:2 1366:10 1367:2 1369:2 1375:2 1376:4 1386:2 1387:2 1388:4 1392:2 1412:8 1418:2 1419:6 1429:10 1440:4 1446:2 1449:4 1453:4 1456:4 1461:4 1462:4 1466:2 1467:2 1471:16 1475:2 1479:12 1487:10 1496:2 1501:4 1503:6 1507:2 1516:2 1521:4 1556:2 1559:6 1561:2 1563:6 1585:2 1595:2 1598:2 1613:2 1628:2 1649:2 1667:2 1672:4 1684:2 1687:2 1702:4 1716:2 1720:2 1748:2 1778:2 1802:2 1822:2 1829:2 1836:4 1844:2 1866:2 1875:2 1892:4 1904:6 1908:2 1913:2 1915:4 1919:2 1923:2 1930:4 1952:2 1957:6 1959:2 1977:2 1990:2 2007:2 2024:2 2026:2 2030:4 2038:2 2045:2 2049:2 2060:2 2064:12 2103:2 2111:2 2117:2 2151:2 2168:6 2205:4 2258:2 2297:2 2300:2 2311:4 2312:8 2317:2 2343:4 2357:2 2359:2 2379:2 2410:2 2417:2 2435:2 2445:2 2480:2 2495:6 2505:2 2527:2 2559:8 2590:2 2597:4 2611:10 2618:6 2623:2 2631:6 2635:2 2637:4 2655:2 2657:2 2663:2 2676:2 2679:4 2690:2 2735:2 2766:2}\n'
tp29
a(S't # 28 * 132\n'
S'v 0 4\nv 1 7\n'
S'v 1 7\n'
S'e 0 1 0\n'
S'e 0 1 0\n'
S' {111:1 158:1 251:3 590:1 717:1 818:1 889:2 894:1 943:1 1037:1 1046:1 1048:1 1413:2 1486:1 1528:1 1535:1 1538:1 1569:1 1581:1 1584:1 1595:1 1611:1 1622:1 1630:1 1637:1 1652:1 1653:1 1658:2 1694:1 1711:1 1717:1 1723:1 1727:1 1729:1 1733:1 1760:1 1768:1 1773:1 1786:1 1793:1 1803:1 1824:1 1831:1 1832:1 1840:1 1847:1 1856:1 1861:1 1872:1 1880:1 1919:1 1928:1 1936:1 1938:1 1945:1 1962:1 1965:1 2012:1 2054:1 2055:1 2059:1 2060:1 2061:1 2096:1 2098:1 2107:1 2113:1 2140:1 2147:1 2167:1 2175:1 2179:1 2195:1 2198:1 2202:1 2205:1 2206:1 2222:1 2232:1 2236:2 2239:1 2240:1 2245:1 2259:1 2269:1 2270:1 2272:1 2273:1 2302:1 2315:1 2326:1 2361:1 2370:1 2376:1 2383:1 2386:1 2395:1 2396:1 2413:1 2426:1 2427:1 2432:1 2446:1 2462:1 2470:1 2472:1 2481:1 2483:1 2496:1 2497:1 2501:1 2513:1 2524:1 2532:1 2544:1 2545:1 2581:1 2620:1 2654:1 2666:2 2672:1 2674:1 2724:1 2741:1 2757:1 2760:2 2767:1 2772:1 2774:1 2787:1 2792:1 2795:1}\n'
tp30
a(S't # 29 * 38\n'
S'v 0 1\nv 1 1\n'
S'v 1 1\n'
S'e 0 1 0\n'
S'e 0 1 0\n'
S' {104:6 113:2 155:4 523:12 528:2 571:2 688:6 879:2 1109:6 1167:2 1235:2 1271:8 1314:2 1386:2 1439:2 1591:2 1644:2 1646:2 1845:2 1988:2 2010:2 2041:2 2048:2 2152:2 2255:2 2385:2 2419:2 2468:2 2471:2 2480:2 2506:2 2530:2 2577:2 2593:2 2624:2 2647:2 2742:2 2799:2}\n'
tp31
a(S't # 30 * 47\n'
S'v 0 2\nv 1 4\n'
S'v 1 4\n'
S'e 0 1 0\n'
S'e 0 1 0\n'
S' {173:1 208:1 513:1 757:1 784:3 883:1 1005:1 1044:1 1154:1 1173:2 1257:1 1271:1 1301:1 1542:1 1561:1 1576:1 1596:1 1702:1 1789:1 1799:1 1802:1 1804:3 1842:1 1864:1 1879:1 1884:1 1932:1 1949:1 1995:1 2127:1 2141:4 2161:1 2252:1 2281:1 2403:1 2435:1 2518:2 2529:1 2540:1 2566:1 2580:1 2624:1 2630:1 2635:2 2659:1 2734:1 2750:1}\n'
tp32
a(S't # 31 * 494\n'
S'v 0 11\nv 1 11\n'
S'v 1 11\n'
S'e 0 1 2\n'
S'e 0 1 2\n'
S' {5:2 12:6 19:2 26:2 28:2 30:4 43:10 44:2 45:20 50:2 53:2 54:18 55:2 56:10 57:12 59:4 60:2 62:4 69:4 81:2 87:4 94:4 99:2 107:2 112:2 114:2 115:2 118:2 124:2 125:6 128:2 129:2 134:6 136:2 137:2 138:4 143:2 144:4 145:42 154:2 157:26 170:2 171:2 175:2 177:6 178:12 184:2 185:2 186:2 191:22 196:10 201:6 212:6 214:4 215:6 216:2 217:4 221:2 222:4 227:6 230:4 232:4 242:2 248:2 253:2 254:2 259:2 260:2 265:8 273:2 278:2 279:10 281:4 286:2 287:22 291:4 293:8 300:4 309:4 311:2 323:4 326:4 327:10 329:12 333:16 335:4 337:4 342:2 343:2 345:2 354:8 356:4 360:4 361:2 367:2 373:2 374:4 382:2 387:2 391:6 408:32 411:2 412:2 416:2 421:2 437:2 439:18 442:6 443:4 444:4 445:2 446:6 447:8 448:10 449:8 455:2 456:4 457:2 458:32 461:2 462:8 468:6 469:4 480:22 485:8 486:4 493:6 496:4 497:4 500:4 501:12 502:8 503:4 504:2 510:2 521:4 530:6 542:4 543:4 549:2 552:12 556:6 557:2 559:4 565:2 567:2 568:2 569:2 576:6 581:14 586:4 587:6 595:2 597:2 598:4 602:2 605:2 608:4 614:4 616:2 617:4 618:4 619:4 622:4 626:6 627:6 630:4 633:2 638:2 639:12 640:4 642:8 643:4 645:2 648:2 652:2 656:8 657:2 664:6 666:10 669:2 675:2 677:2 686:4 687:2 689:2 691:30 692:16 694:4 700:4 701:6 703:14 705:2 711:14 715:8 720:2 722:16 729:8 735:8 736:2 738:6 739:6 745:2 756:12 758:6 763:2 769:4 772:2 773:8 781:2 784:10 790:24 795:2 796:24 798:2 799:2 801:16 806:2 809:4 815:10 817:8 822:4 831:6 834:4 844:2 848:10 851:4 859:8 861:4 862:2 864:4 868:4 876:2 877:2 878:2 884:2 888:2 895:8 897:2 900:4 907:2 909:12 912:2 913:2 914:16 916:2 919:2 920:2 925:6 926:2 934:2 935:2 936:54 940:10 944:2 946:16 947:2 952:2 957:2 963:2 971:2 972:2 973:2 974:2 981:4 982:2 985:2 994:8 1003:4 1009:2 1011:4 1012:4 1015:8 1017:2 1018:4 1034:2 1035:4 1037:2 1038:2 1050:2 1051:2 1053:2 1055:2 1056:4 1058:2 1059:4 1061:2 1069:2 1071:2 1074:2 1075:2 1077:20 1081:6 1085:8 1086:2 1089:4 1100:4 1101:2 1106:12 1110:4 1113:2 1119:2 1121:8 1122:2 1128:4 1129:2 1130:6 1133:4 1136:4 1145:2 1150:2 1152:8 1153:8 1156:2 1159:4 1170:12 1172:2 1174:14 1192:4 1197:6 1198:6 1204:2 1207:14 1210:2 1211:4 1212:8 1219:6 1223:20 1224:4 1227:2 1228:14 1229:18 1235:2 1237:2 1240:4 1245:2 1250:2 1253:4 1258:4 1260:2 1262:2 1265:2 1266:14 1270:14 1272:2 1275:18 1280:2 1282:2 1283:6 1287:8 1291:4 1293:4 1296:4 1298:4 1300:2 1307:4 1311:2 1313:6 1315:10 1319:6 1320:8 1325:4 1329:2 1331:6 1335:4 1336:2 1337:2 1342:8 1345:8 1348:6 1352:6 1356:2 1362:4 1367:2 1374:4 1376:6 1382:2 1388:2 1389:6 1392:6 1393:2 1396:2 1403:2 1409:20 1412:10 1413:2 1414:2 1419:6 1427:2 1429:2 1456:2 1462:2 1467:18 1474:2 1480:2 1481:18 1486:2 1487:10 1500:2 1507:4 1509:4 1510:4 1559:2 1563:8 1577:2 1593:4 1595:2 1597:2 1606:2 1626:2 1628:2 1643:2 1660:2 1680:4 1685:8 1688:4 1716:2 1721:2 1731:2 1742:2 1766:2 1779:2 1802:4 1818:2 1824:2 1829:6 1835:2 1836:2 1844:2 1876:2 1904:6 1912:2 1915:2 1920:2 1946:2 1947:2 1960:2 1991:4 2012:2 2038:2 2064:6 2111:2 2124:2 2130:2 2143:2 2144:2 2163:2 2167:2 2176:2 2201:2 2205:4 2210:4 2251:4 2258:2 2269:2 2275:2 2277:2 2302:2 2312:4 2317:2 2370:2 2372:2 2379:2 2392:2 2402:2 2418:2 2440:2 2443:2 2460:4 2478:2 2528:2 2537:2 2540:6 2548:4 2555:4 2559:2 2563:2 2566:2 2582:2 2585:2 2597:2 2603:4 2606:2 2611:2 2613:2 2624:2 2633:6 2658:2 2673:6 2694:4 2714:40 2737:2 2777:2 2781:2}\n'
tp33
a(S't # 32 * 78\n'
S'v 0 3\nv 1 10\n'
S'v 1 10\n'
S'e 0 1 0\n'
S'e 0 1 0\n'
S' {9:1 83:1 173:4 261:1 268:16 298:8 321:2 351:2 386:3 402:2 422:4 495:4 515:3 518:1 570:2 624:11 636:5 650:1 699:2 707:1 718:1 791:2 813:3 840:1 886:2 942:2 975:1 1000:1 1190:5 1395:1 1432:5 1472:1 1488:5 1623:1 1657:1 1661:1 1687:2 1709:1 1798:2 1851:1 1892:1 1914:1 1921:2 1949:2 1972:1 1981:2 1996:1 2002:1 2017:1 2058:1 2069:1 2077:2 2088:2 2100:1 2128:1 2129:1 2155:1 2214:1 2228:1 2255:2 2261:1 2284:1 2302:1 2319:2 2324:1 2327:1 2374:1 2435:1 2443:1 2476:2 2519:1 2526:1 2553:1 2660:1 2707:1 2708:2 2770:2 2788:1}\n'
tp34
a(S't # 33 * 107\n'
S'v 0 5\nv 1 6\n'
S'v 1 6\n'
S'e 0 1 0\n'
S'e 0 1 0\n'
S' {27:1 33:2 40:1 87:1 91:5 189:1 226:2 257:1 548:1 549:1 585:2 599:1 669:3 673:1 708:2 764:1 776:1 820:1 839:1 846:5 864:1 897:1 931:1 1020:1 1058:2 1123:3 1213:1 1235:1 1289:1 1309:1 1310:1 1355:1 1416:1 1430:1 1433:1 1466:1 1512:1 1513:1 1518:1 1541:1 1557:1 1594:2 1627:1 1635:1 1670:1 1672:1 1720:1 1741:1 1780:1 1795:1 1796:1 1808:1 1816:1 1830:2 1841:1 1854:2 1878:2 1912:1 1916:2 1941:2 1946:1 1990:2 1994:2 2005:1 2006:1 2023:1 2078:1 2151:2 2168:1 2185:1 2188:1 2219:1 2228:1 2238:2 2246:1 2251:1 2263:1 2291:2 2311:1 2357:1 2386:1 2394:1 2412:1 2417:1 2430:1 2436:2 2440:1 2450:1 2455:1 2464:2 2495:1 2528:1 2530:3 2557:1 2561:2 2575:2 2590:1 2601:1 2603:1 2611:1 2663:1 2690:1 2721:1 2743:3 2750:1 2764:1 2785:1}\n'
tp35
a(S't # 34 * 77\n'
S'v 0 0\nv 1 11\n'
S'v 1 11\n'
S'e 0 1 1\n'
S'e 0 1 1\n'
S' {367:1 448:2 544:1 556:2 626:2 784:1 1020:1 1313:3 1515:1 1539:1 1559:1 1589:1 1590:1 1599:1 1615:1 1617:1 1629:2 1637:1 1648:1 1676:1 1726:1 1728:1 1731:1 1740:1 1751:1 1753:1 1754:1 1774:1 1791:1 1811:1 1863:1 1877:1 1902:1 1904:2 1910:1 1976:1 1983:1 1985:1 2032:1 2039:1 2050:1 2051:1 2064:2 2093:1 2105:1 2139:1 2144:1 2178:1 2180:1 2190:1 2244:1 2279:1 2286:1 2335:1 2356:1 2389:1 2390:1 2400:2 2405:1 2407:1 2411:1 2428:1 2448:1 2456:1 2490:1 2491:1 2503:1 2538:1 2571:1 2580:2 2611:1 2646:1 2678:1 2681:1 2693:1 2790:1 2797:1}\n'
tp36
a(S't # 35 * 33\n'
S'v 0 9\nv 1 11\n'
S'v 1 11\n'
S'e 0 1 0\n'
S'e 0 1 0\n'
S' {81:1 187:1 324:1 521:1 784:1 891:1 1108:1 1128:1 1214:2 1279:1 1317:1 1519:1 1526:1 1589:1 1630:1 1640:2 1685:3 1805:2 1876:1 1906:1 2021:1 2043:1 2095:1 2127:1 2144:1 2283:1 2350:1 2423:1 2548:1 2554:1 2644:1 2675:1 2738:1}\n'
tp37
a(S't # 36 * 562\n'
S'v 0 4\nv 1 4\n'
S'v 1 4\n'
S'e 0 1 2\n'
S'e 0 1 2\n'
S' {0:2 8:14 11:4 14:2 15:2 16:2 20:2 21:4 43:4 47:2 50:2 52:2 56:10 57:10 66:4 67:6 68:8 70:2 71:2 76:4 84:4 86:2 88:2 89:4 92:2 93:2 94:2 96:2 103:2 105:2 106:16 107:2 110:10 112:8 115:2 122:2 125:2 126:2 129:2 134:2 136:10 140:6 144:2 146:2 147:8 149:12 160:2 168:10 170:44 175:2 182:6 185:2 194:2 200:6 202:10 209:8 214:18 216:4 217:8 224:2 227:6 229:10 230:2 231:4 232:8 236:2 237:12 262:2 263:6 267:2 272:4 273:8 274:2 275:4 276:12 279:8 280:4 281:2 283:8 296:4 300:4 304:12 306:2 308:2 309:2 317:2 320:4 325:2 327:2 329:14 330:6 332:26 337:4 339:2 341:2 344:8 350:2 354:4 356:2 360:2 370:2 373:2 374:4 376:2 379:4 383:6 390:2 394:6 395:4 397:4 398:2 399:2 407:2 412:2 415:4 417:8 418:6 419:4 421:2 429:2 435:14 446:22 447:2 448:2 449:22 453:20 459:2 460:2 461:4 466:2 472:2 476:2 478:2 481:2 485:2 486:2 488:2 490:2 497:2 499:2 500:2 501:8 510:2 511:4 512:18 514:2 521:2 526:2 530:2 534:2 536:12 546:4 549:2 552:4 555:20 556:8 557:8 563:2 564:2 565:2 571:2 572:2 575:2 576:4 581:2 586:2 589:2 593:12 597:4 601:2 602:2 605:2 607:2 608:4 614:4 616:4 617:8 618:4 626:8 627:6 630:10 634:2 637:2 640:4 642:4 646:4 648:2 649:6 650:4 654:4 658:2 662:4 663:2 666:4 669:2 670:2 672:2 674:4 679:2 682:14 687:4 689:8 690:2 692:2 701:6 705:12 717:4 718:2 719:6 723:4 728:4 729:14 732:2 733:2 734:2 740:4 741:2 743:2 745:2 748:2 760:2 765:28 766:2 767:2 768:4 774:12 780:2 783:4 784:2 785:2 788:2 799:2 801:14 803:4 806:2 810:6 812:2 815:2 817:10 818:2 821:2 826:2 838:2 841:10 845:8 847:2 848:8 850:2 851:2 852:2 854:8 855:14 861:4 862:12 863:2 866:2 867:14 868:2 877:2 883:2 888:10 889:2 895:2 896:2 900:8 902:2 909:2 911:2 919:2 920:2 923:2 925:2 930:2 944:2 947:4 950:2 956:2 960:2 963:2 964:2 969:14 972:6 976:12 982:2 985:2 990:2 992:2 994:12 1001:2 1002:2 1004:6 1005:2 1009:2 1012:2 1016:2 1017:6 1018:6 1021:2 1022:2 1033:2 1036:2 1039:22 1040:6 1041:4 1042:2 1045:2 1053:2 1056:12 1057:2 1059:8 1064:2 1070:2 1071:2 1072:2 1074:4 1075:6 1082:6 1085:2 1087:2 1089:4 1097:2 1102:10 1103:2 1106:2 1107:2 1108:2 1117:2 1119:2 1121:2 1125:2 1126:2 1128:2 1130:6 1136:8 1138:2 1142:2 1145:26 1155:4 1162:2 1164:2 1167:4 1178:2 1180:2 1185:2 1192:2 1193:2 1196:6 1206:4 1207:8 1208:14 1212:8 1213:4 1222:4 1224:2 1228:2 1229:8 1230:6 1232:2 1235:2 1236:6 1247:2 1253:12 1255:2 1258:6 1266:4 1268:2 1272:8 1273:2 1281:2 1283:2 1287:2 1290:2 1293:4 1298:2 1300:6 1311:20 1312:4 1315:10 1316:2 1319:12 1320:2 1322:2 1323:4 1328:12 1336:4 1338:2 1341:2 1344:6 1348:2 1351:4 1352:4 1353:4 1366:12 1367:4 1369:2 1372:4 1375:2 1376:2 1382:2 1383:2 1387:4 1388:8 1389:2 1391:2 1392:6 1400:2 1403:2 1407:2 1411:2 1412:4 1414:2 1418:4 1419:4 1426:4 1429:2 1437:2 1438:2 1440:2 1446:2 1449:6 1450:2 1453:2 1456:8 1461:4 1462:10 1466:2 1467:4 1471:16 1474:2 1475:8 1479:16 1483:2 1487:10 1493:2 1496:2 1501:4 1503:8 1507:2 1509:2 1511:2 1513:2 1519:2 1534:2 1559:2 1561:2 1563:8 1594:2 1613:2 1614:2 1628:4 1649:2 1658:2 1667:2 1672:4 1677:2 1680:2 1684:2 1688:2 1703:2 1715:4 1716:2 1721:2 1755:2 1757:4 1778:4 1789:2 1802:2 1804:4 1811:2 1816:2 1829:4 1836:4 1844:2 1866:2 1892:4 1904:2 1908:2 1919:2 1920:2 1927:2 1930:6 1952:2 1957:8 1959:4 1960:2 1977:2 1990:2 2001:2 2006:2 2024:2 2026:8 2038:2 2049:8 2064:12 2078:2 2080:2 2103:2 2117:2 2125:2 2141:4 2166:2 2168:8 2181:2 2187:2 2190:2 2205:4 2210:2 2237:2 2245:2 2249:2 2258:2 2301:2 2311:2 2315:2 2343:4 2357:2 2359:2 2375:2 2399:2 2403:4 2410:4 2417:2 2435:2 2454:2 2462:2 2480:8 2486:2 2495:4 2505:2 2509:2 2514:2 2527:4 2536:2 2547:2 2555:2 2559:4 2566:2 2576:2 2580:2 2586:2 2597:6 2608:2 2618:2 2623:2 2625:2 2631:10 2635:2 2637:2 2640:2 2643:2 2652:2 2653:2 2673:2 2688:2 2690:2 2733:2 2743:2 2755:2 2760:2 2767:2 2778:2 2781:2}\n'
tp38
a(S't # 37 * 105\n'
S'v 0 3\nv 1 5\n'
S'v 1 5\n'
S'e 0 1 0\n'
S'e 0 1 0\n'
S' {95:1 119:1 158:1 375:1 386:2 434:1 525:1 532:1 637:1 707:2 784:1 808:2 813:4 864:1 868:1 898:2 929:1 948:1 962:2 993:2 1066:1 1112:1 1379:1 1390:1 1472:1 1525:2 1527:1 1531:1 1548:1 1549:2 1578:1 1594:2 1638:1 1640:1 1656:1 1670:2 1696:1 1752:1 1792:1 1795:2 1812:2 1841:2 1905:1 1911:1 1914:1 1921:1 1925:1 1949:1 1982:1 1984:1 1986:1 2021:1 2034:1 2038:1 2062:1 2077:1 2090:1 2092:1 2137:1 2155:1 2167:1 2177:1 2183:1 2192:1 2228:1 2234:1 2254:2 2261:1 2262:1 2266:1 2284:2 2285:1 2302:1 2328:1 2332:1 2345:1 2347:1 2355:1 2358:1 2364:1 2374:1 2375:1 2402:1 2414:1 2443:1 2445:1 2450:2 2476:1 2478:1 2517:2 2526:1 2550:1 2568:1 2612:1 2613:2 2618:2 2676:1 2690:1 2700:1 2702:1 2704:1 2705:1 2711:2 2716:1 2717:1}\n'
tp39
a(S't # 38 * 96\n'
S'v 0 5\nv 1 13\n'
S'v 1 13\n'
S'e 0 1 0\n'
S'e 0 1 0\n'
S' {24:1 33:1 64:1 87:2 91:1 154:1 192:1 223:1 224:2 247:1 489:1 527:2 548:1 583:1 585:2 604:1 651:1 669:1 712:2 742:1 764:1 793:1 820:1 846:1 864:1 897:1 1093:1 1094:2 1123:2 1165:1 1166:1 1187:1 1289:1 1309:1 1374:1 1386:1 1516:1 1557:1 1558:1 1607:4 1608:1 1610:1 1618:1 1621:1 1701:1 1715:2 1720:1 1747:1 1758:1 1780:1 1785:1 1787:1 1789:1 1796:1 1822:1 1838:1 1852:1 1854:1 1875:1 1878:1 1904:2 1912:1 2047:1 2078:1 2079:1 2112:1 2126:1 2173:1 2184:1 2185:1 2187:1 2213:1 2233:1 2251:1 2259:1 2291:1 2299:1 2318:1 2366:1 2404:1 2430:1 2440:1 2442:1 2476:1 2505:1 2509:1 2550:1 2558:1 2590:1 2619:1 2635:1 2689:1 2721:1 2759:1 2800:1 2801:1}\n'
tp40
a(S't # 39 * 42\n'
S'v 0 8\nv 1 8\n'
S'v 1 8\n'
S'e 0 1 1\n'
S'e 0 1 1\n'
S' {51:2 101:2 155:4 243:2 321:2 359:2 365:6 609:2 819:2 830:4 864:2 1109:8 1135:8 1137:10 1167:2 1183:4 1284:2 1460:2 1544:4 1545:2 1579:2 1635:2 1708:2 2085:6 2091:2 2196:2 2200:2 2215:2 2248:2 2345:2 2367:2 2381:2 2421:2 2478:2 2504:2 2535:2 2619:2 2649:2 2696:2 2697:2 2712:2 2767:2}\n'
tp41
a(S't # 40 * 80\n'
S'v 0 6\nv 1 12\n'
S'v 1 12\n'
S'e 0 1 0\n'
S'e 0 1 0\n'
S' {91:3 164:1 180:1 355:1 411:1 669:2 742:1 864:1 1020:1 1025:1 1030:1 1161:1 1163:1 1430:1 1516:1 1518:1 1557:1 1558:1 1587:2 1594:1 1609:1 1612:1 1627:1 1629:1 1637:1 1655:1 1656:1 1670:1 1675:1 1701:3 1715:1 1741:1 1788:1 1790:2 1796:2 1816:1 1820:1 1830:1 1841:1 1864:1 1875:1 1888:1 1916:1 1931:1 1977:1 2038:1 2052:1 2064:1 2068:1 2085:1 2118:1 2141:1 2166:1 2188:1 2201:1 2241:1 2243:1 2259:1 2260:1 2263:1 2379:1 2386:1 2394:1 2399:1 2505:1 2527:1 2552:1 2555:1 2557:1 2590:1 2635:1 2641:1 2657:1 2679:1 2689:1 2742:1 2758:2 2762:1 2776:1 2800:1}\n'
tp42
a(S't # 41 * 118\n'
S'v 0 4\nv 1 8\n'
S'v 1 8\n'
S'e 0 1 0\n'
S'e 0 1 0\n'
S' {264:1 365:2 478:1 571:2 637:1 717:1 819:3 864:1 1141:1 1167:2 1207:1 1412:1 1521:1 1526:1 1538:1 1546:1 1572:1 1574:1 1583:1 1593:1 1615:1 1618:1 1631:1 1637:1 1643:1 1662:1 1668:1 1687:1 1704:1 1706:1 1708:1 1715:1 1716:1 1728:1 1735:1 1744:1 1777:1 1778:2 1789:1 1796:1 1802:1 1807:1 1808:1 1825:1 1850:1 1866:1 1886:1 1892:1 1906:1 1923:1 1933:1 1953:1 1956:1 1961:1 1966:2 1977:2 1979:1 1990:2 1993:1 2006:1 2040:1 2042:1 2084:1 2085:1 2087:1 2102:1 2107:1 2113:1 2117:1 2135:1 2145:1 2153:1 2154:1 2166:1 2185:1 2196:2 2203:1 2220:1 2223:1 2231:1 2248:2 2286:1 2289:1 2296:1 2313:1 2320:1 2335:1 2342:1 2343:1 2363:1 2367:2 2380:1 2384:1 2386:1 2407:1 2417:1 2421:1 2432:1 2504:1 2518:1 2535:1 2538:1 2547:1 2556:1 2590:1 2609:1 2617:1 2665:1 2667:1 2697:1 2712:1 2713:1 2718:1 2727:1 2734:1 2740:1 2767:2 2784:1}\n'
tp43
a(S't # 42 * 155\n'
S'v 0 12\nv 1 12\n'
S'v 1 12\n'
S'e 0 1 3\n'
S'e 0 1 3\n'
S' {1:4 5:2 38:2 61:2 71:2 73:6 82:4 121:6 127:6 152:2 156:2 168:2 204:2 206:2 210:2 222:2 292:2 302:4 315:6 337:2 339:2 362:2 377:2 407:2 436:26 440:2 464:2 475:2 479:2 491:8 494:2 509:2 516:10 529:12 532:2 540:2 541:14 556:2 559:2 573:4 583:2 615:2 621:8 632:2 635:8 637:4 641:8 669:12 681:2 697:6 712:8 746:10 752:2 781:8 784:2 804:2 868:2 874:2 892:2 903:6 908:2 921:4 947:2 970:2 986:2 1025:6 1039:2 1048:6 1058:2 1095:4 1118:2 1149:4 1158:2 1169:2 1203:2 1215:6 1222:6 1226:2 1240:4 1244:2 1247:4 1256:2 1267:2 1270:20 1278:8 1288:2 1294:4 1297:2 1309:4 1312:6 1353:2 1357:6 1358:2 1364:2 1369:8 1377:2 1380:4 1410:2 1429:2 1430:8 1457:8 1467:2 1481:2 1504:4 1516:4 1518:2 1533:2 1534:2 1557:2 1610:2 1635:2 1636:2 1672:2 1701:2 1741:2 1770:2 1800:2 1837:2 1841:2 1844:2 1854:2 1892:2 1932:2 1962:2 2005:2 2038:2 2049:2 2052:2 2163:4 2184:2 2185:2 2209:2 2212:2 2229:2 2237:2 2243:2 2287:2 2299:2 2345:2 2377:2 2386:2 2392:2 2417:2 2445:2 2495:2 2505:2 2517:2 2521:2 2555:2 2590:2 2676:4 2719:2 2743:4 2758:2 2780:6}\n'
tp44
a(S't # 43 * 81\n'
S'v 0 7\nv 1 11\n'
S'v 1 11\n'
S'e 0 1 0\n'
S'e 0 1 0\n'
S' {241:1 251:2 497:1 544:2 580:1 627:1 632:1 705:2 792:1 1046:1 1232:2 1486:1 1528:1 1535:1 1538:1 1539:1 1569:1 1584:1 1598:1 1660:1 1663:1 1680:2 1688:1 1689:1 1694:1 1707:1 1717:1 1727:1 1760:1 1768:1 1786:1 1826:1 1840:1 1903:1 1909:1 1919:2 1997:1 1999:1 2061:1 2097:1 2098:1 2101:1 2121:1 2131:1 2135:1 2140:1 2175:1 2216:1 2217:1 2239:1 2245:1 2273:1 2314:1 2361:1 2370:2 2376:1 2382:1 2432:1 2433:1 2455:1 2470:1 2481:1 2497:1 2501:1 2522:1 2532:1 2544:1 2551:1 2556:1 2562:1 2565:1 2578:1 2580:1 2627:1 2672:1 2745:1 2760:1 2774:1 2779:1 2787:1 2789:1}\n'
tp45
a(S't # 44 * 72\n'
S'v 0 11\nv 1 13\n'
S'v 1 13\n'
S'e 0 1 1\n'
S'e 0 1 1\n'
S' {81:1 87:1 154:1 159:1 180:1 897:1 1013:1 1111:1 1207:1 1263:1 1289:1 1374:1 1540:1 1544:1 1546:1 1593:2 1598:1 1607:1 1649:1 1688:1 1705:1 1720:1 1721:1 1795:1 1820:1 1828:1 1854:1 1869:1 1876:2 1896:1 1904:2 1908:1 1989:1 2023:1 2028:1 2038:1 2060:1 2064:3 2142:1 2143:1 2146:1 2163:1 2168:1 2187:1 2213:1 2233:1 2246:1 2259:1 2281:1 2352:1 2366:1 2417:1 2440:1 2462:1 2491:1 2505:1 2550:1 2555:1 2559:2 2563:1 2566:1 2584:1 2590:1 2604:1 2619:1 2651:1 2673:1 2685:1 2689:2 2735:1 2756:1 2777:1}\n'
tp46
a(S't # 45 * 37\n'
S'v 0 1\nv 1 7\n'
S'v 1 7\n'
S'e 0 1 0\n'
S'e 0 1 0\n'
S' {101:1 250:2 371:1 1068:3 1096:1 1561:1 1602:1 1622:1 1688:1 1707:1 1762:1 1778:1 1784:1 1873:1 1934:1 1988:1 2027:1 2036:1 2115:1 2163:1 2179:1 2232:1 2305:1 2342:1 2406:1 2483:1 2524:1 2525:1 2569:1 2593:1 2622:2 2686:1 2727:2 2752:1 2762:2 2789:1 2798:1}\n'
tp47
a(S't # 46 * 17\n'
S'v 0 13\nv 1 13\n'
S'v 1 13\n'
S'e 0 1 0\n'
S'e 0 1 0\n'
S' {17:2 454:4 527:2 548:2 583:2 742:4 1029:2 1094:2 1123:2 1324:6 1355:2 1544:2 1836:2 2068:2 2138:2 2689:2 2801:2}\n'
tp48
a(S't # 47 * 72\n'
S'v 0 3\nv 1 3\n'
S'v 1 3\n'
S'e 0 1 1\n'
S'e 0 1 1\n'
S' {113:2 117:4 193:2 268:22 280:2 298:6 375:4 386:22 422:2 425:6 477:4 495:14 515:6 554:2 560:4 570:2 624:10 636:8 673:2 684:2 698:8 741:2 791:4 808:2 813:4 898:6 917:4 962:2 993:2 1084:6 1098:6 1115:8 1120:4 1168:10 1190:18 1195:4 1243:4 1306:6 1314:2 1347:2 1390:2 1395:2 1432:14 1488:10 1498:4 1640:2 1668:2 1738:2 1772:2 1812:2 1822:2 1914:2 1921:2 1949:2 1996:2 2088:2 2094:2 2230:2 2254:2 2255:2 2284:2 2319:2 2374:6 2434:4 2476:2 2519:4 2580:2 2586:2 2708:2 2711:2 2747:4 2751:14}\n'
tp49
a(S't # 48 * 91\n'
S'v 0 4\nv 1 8\n'
S'v 1 8\n'
S'e 0 1 1\n'
S'e 0 1 1\n'
S' {251:1 365:1 544:1 571:3 637:1 717:2 883:1 1007:1 1167:2 1337:2 1340:1 1412:1 1513:1 1528:1 1547:1 1564:1 1581:1 1593:2 1630:1 1646:1 1708:2 1715:1 1716:1 1722:1 1734:1 1735:1 1747:1 1753:1 1778:2 1802:1 1805:1 1817:1 1824:1 1831:1 1848:1 1866:1 1874:1 1892:2 1893:1 1910:1 1919:1 1923:2 1942:1 1971:1 1983:1 1990:2 2019:1 2064:3 2070:1 2071:1 2072:1 2087:1 2117:1 2119:1 2136:1 2162:1 2166:1 2247:1 2248:3 2286:1 2289:1 2310:1 2323:1 2335:1 2381:1 2393:1 2417:2 2475:1 2516:1 2520:1 2533:1 2540:1 2547:1 2579:1 2580:1 2605:1 2630:1 2649:1 2671:1 2678:1 2683:1 2710:1 2712:4 2729:1 2740:1 2746:2 2753:1 2754:1 2765:1 2767:1 2784:1}\n'
tp50
a(S't # 49 * 45\n'
S'v 0 10\nv 1 10\n'
S'v 1 10\n'
S'e 0 1 2\n'
S'e 0 1 2\n'
S' {77:10 83:30 151:2 173:4 174:2 268:10 298:8 321:2 351:4 384:2 402:2 403:2 422:2 450:2 473:2 518:4 624:10 636:4 784:2 832:8 942:2 977:2 1112:2 1190:2 1276:4 1332:2 1364:26 1370:2 1472:2 1488:2 1564:2 1582:2 1669:2 1674:2 1725:2 1755:2 1798:2 1914:2 2117:4 2145:2 2510:2 2540:2 2553:2 2660:2 2676:2}\n'
tp51
a(S't # 50 * 237\n'
S'v 0 5\nv 1 5\n'
S'v 1 5\n'
S'e 0 1 2\n'
S'e 0 1 2\n'
S' {1:2 4:8 19:2 37:4 64:2 71:14 73:6 78:4 91:2 127:6 131:14 142:2 144:2 154:2 173:2 206:2 209:2 211:6 224:4 225:2 226:4 227:2 235:14 241:2 295:2 303:2 311:2 334:2 353:2 362:6 372:12 377:2 380:2 383:8 393:2 407:12 409:2 416:2 424:2 432:4 466:2 472:2 479:6 482:2 484:2 489:2 531:2 585:2 603:2 604:2 613:2 646:2 647:2 651:2 653:4 669:4 676:2 679:6 682:4 685:2 704:6 707:4 712:6 724:14 746:14 777:2 781:2 792:2 794:4 812:2 813:4 825:2 838:2 846:4 848:2 864:4 874:4 885:12 892:2 893:2 897:2 903:6 904:2 927:2 957:2 969:2 987:2 991:2 993:4 1005:2 1024:2 1030:2 1033:2 1043:2 1048:8 1056:2 1058:2 1066:4 1090:4 1093:10 1095:16 1116:2 1123:4 1127:2 1149:2 1158:2 1167:2 1182:2 1186:2 1187:10 1200:6 1216:2 1217:2 1220:2 1222:4 1234:2 1235:2 1241:20 1247:6 1259:10 1278:16 1288:8 1289:2 1309:10 1313:2 1327:2 1333:4 1351:2 1353:4 1369:12 1377:6 1398:2 1417:4 1421:2 1424:10 1425:2 1434:8 1444:2 1464:2 1469:2 1491:2 1492:26 1495:2 1525:2 1527:2 1533:2 1541:2 1557:2 1594:4 1610:2 1626:2 1627:2 1635:2 1644:2 1680:2 1758:2 1761:6 1770:2 1776:2 1785:6 1796:2 1800:4 1802:2 1804:4 1816:4 1822:2 1830:2 1837:2 1841:6 1844:2 1852:2 1854:2 1864:2 1904:4 1912:2 1941:2 1952:2 1969:6 1982:2 1994:2 1995:4 2007:2 2015:2 2021:2 2045:2 2049:2 2068:2 2080:2 2103:2 2112:2 2149:2 2151:2 2173:2 2182:4 2185:2 2189:2 2209:2 2243:2 2245:2 2251:2 2292:2 2298:2 2299:4 2330:2 2348:2 2366:4 2369:6 2374:2 2419:2 2427:2 2430:2 2436:4 2437:2 2447:2 2450:2 2458:2 2474:2 2517:4 2521:2 2537:4 2539:2 2557:2 2590:6 2594:2 2610:4 2636:2 2640:2 2668:2 2673:2 2676:2 2689:2 2692:6 2704:2 2721:2 2759:2 2761:2 2762:2}\n'
tp52
a(S't # 51 * 73\n'
S'v 0 6\nv 1 11\n'
S'v 1 11\n'
S'e 0 1 0\n'
S'e 0 1 0\n'
S' {27:1 33:2 87:1 224:1 273:2 411:1 650:1 897:2 1013:2 1020:1 1163:1 1254:1 1379:2 1474:2 1514:1 1528:1 1541:1 1546:1 1580:1 1593:1 1607:1 1609:1 1628:1 1637:1 1672:1 1675:1 1703:1 1705:1 1715:1 1720:1 1737:1 1794:1 1808:1 1854:1 1883:1 1912:2 1931:1 1946:1 2023:1 2040:1 2060:1 2072:1 2095:1 2146:1 2198:1 2201:2 2220:1 2227:2 2228:1 2259:1 2281:1 2321:1 2344:1 2352:1 2366:1 2372:3 2379:1 2394:2 2436:1 2440:1 2462:1 2464:1 2491:1 2527:1 2537:1 2587:1 2601:1 2633:2 2641:1 2694:1 2743:1 2756:1 2776:1}\n'
tp53
a(S't # 52 * 40\n'
S'v 0 0\nv 1 8\n'
S'v 1 8\n'
S'e 0 1 0\n'
S'e 0 1 0\n'
S' {251:1 478:1 544:1 709:2 717:1 1524:1 1547:1 1579:1 1620:1 1656:1 1688:1 1728:1 1753:1 1910:1 1923:1 1983:1 2063:1 2064:1 2110:2 2148:1 2157:1 2172:1 2231:1 2284:1 2286:1 2363:1 2367:1 2389:1 2397:1 2405:1 2407:1 2590:1 2639:1 2649:2 2678:2 2681:1 2696:1 2710:1 2713:1 2735:1}\n'
tp54
a(S't # 53 * 181\n'
S'v 0 12\nv 1 12\n'
S'v 1 12\n'
S'e 0 1 2\n'
S'e 0 1 2\n'
S' {1:4 5:2 18:2 31:2 61:4 71:4 73:6 79:2 82:2 91:4 121:8 127:2 142:2 152:2 156:4 168:2 204:2 222:2 223:2 238:2 301:2 302:8 315:8 334:2 339:2 350:4 362:4 365:2 402:2 416:2 420:2 424:2 430:2 432:2 436:28 439:2 440:2 447:2 475:4 479:8 491:12 494:4 508:2 509:2 516:12 526:2 529:16 532:2 537:2 541:16 556:2 559:2 573:6 583:2 604:2 615:4 617:8 621:12 635:10 637:2 641:10 644:2 660:2 665:2 667:2 669:14 697:8 712:4 738:2 746:8 781:6 804:2 827:2 846:2 848:4 864:4 868:2 892:6 903:6 906:2 908:4 915:2 921:6 932:4 951:2 965:2 970:2 996:2 999:2 1025:6 1030:2 1033:2 1048:6 1058:2 1060:2 1073:2 1095:8 1108:2 1116:4 1131:2 1149:2 1158:2 1169:2 1179:2 1184:2 1187:4 1194:2 1209:4 1215:8 1216:2 1226:4 1240:4 1244:4 1247:4 1256:4 1267:4 1270:16 1278:12 1288:2 1294:4 1297:2 1308:2 1309:2 1312:4 1313:2 1353:4 1357:2 1358:4 1369:16 1374:2 1377:4 1410:2 1417:2 1430:6 1457:8 1459:2 1467:4 1494:2 1504:2 1516:4 1549:2 1557:2 1628:2 1690:2 1747:2 1761:2 1785:2 1796:2 1816:2 1830:2 1837:2 1841:2 1973:2 1995:4 1998:2 2015:2 2033:2 2049:2 2184:2 2185:2 2191:2 2212:4 2237:2 2299:4 2377:2 2442:2 2474:2 2495:2 2505:2 2521:2 2527:2 2530:2 2539:2 2575:2 2590:2 2603:4 2610:2 2657:2 2688:2 2703:4 2739:2}\n'
tp55
a(S't # 54 * 61\n'
S'v 0 0\nv 1 4\n'
S'v 1 4\n'
S'e 0 1 1\n'
S'e 0 1 1\n'
S' {251:2 255:1 478:1 544:1 556:2 626:1 717:3 818:2 943:1 1274:1 1530:1 1590:1 1593:1 1611:1 1617:2 1628:2 1639:1 1687:1 1728:1 1740:1 1783:1 1789:1 1801:1 1811:1 1836:1 1868:1 1911:1 1918:1 2016:1 2053:1 2056:1 2060:2 2107:1 2133:1 2187:1 2229:1 2231:1 2281:1 2303:1 2316:1 2363:1 2367:1 2405:1 2407:1 2422:1 2452:1 2456:1 2480:2 2538:1 2556:1 2590:1 2600:1 2625:1 2628:1 2645:1 2713:1 2726:1 2730:1 2748:1 2777:1 2780:1}\n'
tp56
a(S't # 55 * 67\n'
S'v 0 8\nv 1 12\n'
S'v 1 12\n'
S'e 0 1 0\n'
S'e 0 1 0\n'
S' {71:1 264:1 267:1 637:1 1093:1 1135:2 1183:2 1235:1 1284:2 1513:1 1532:1 1545:2 1551:1 1593:1 1620:1 1635:1 1643:1 1644:2 1683:1 1701:1 1723:1 1750:1 1761:1 1855:1 1857:1 1878:1 1892:1 1919:1 1922:1 1932:1 1935:1 1950:1 2033:1 2041:1 2052:1 2074:1 2083:1 2085:1 2095:1 2123:1 2141:1 2145:1 2148:1 2150:1 2169:1 2199:1 2200:1 2288:1 2345:2 2377:2 2395:1 2421:2 2449:1 2471:1 2487:1 2488:1 2507:1 2508:1 2512:1 2527:2 2581:1 2610:1 2611:1 2629:1 2708:1 2735:1 2740:1}\n'
tp57
a(S't # 56 * 56\n'
S'v 0 9\nv 1 12\n'
S'v 1 12\n'
S'e 0 1 1\n'
S'e 0 1 1\n'
S' {365:1 532:1 784:1 823:1 842:1 864:1 891:1 1108:1 1317:1 1533:1 1560:1 1565:1 1582:1 1586:1 1690:3 1709:1 1713:1 1788:1 1797:1 1806:1 1853:1 1876:1 1900:1 1932:1 1940:1 1978:1 2013:1 2014:1 2021:1 2033:1 2106:1 2123:1 2132:1 2164:1 2209:2 2212:1 2264:1 2267:1 2280:1 2282:1 2288:1 2304:1 2341:1 2412:1 2423:1 2438:1 2511:1 2523:1 2561:1 2575:1 2596:1 2659:1 2696:1 2704:2 2722:1 2750:1}\n'
tp58
a(S't # 57 * 33\n'
S'v 0 3\nv 1 3\n'
S'v 1 3\n'
S'e 0 1 3\n'
S'e 0 1 3\n'
S' {268:28 298:6 386:30 422:2 425:2 495:6 624:10 636:4 698:6 791:4 813:2 898:2 1084:2 1098:2 1115:4 1168:6 1190:18 1314:2 1317:2 1347:4 1404:2 1432:12 1488:6 1498:2 1548:2 1822:2 1914:2 2330:2 2519:2 2586:2 2613:2 2751:4 2770:2}\n'
tp59
a(S't # 58 * 81\n'
S'v 0 1\nv 1 5\n'
S'v 1 5\n'
S'e 0 1 0\n'
S'e 0 1 0\n'
S' {113:1 256:1 523:1 792:1 993:1 1093:2 1235:1 1271:3 1386:1 1530:1 1550:1 1560:1 1567:2 1635:2 1636:1 1644:2 1645:1 1659:1 1671:1 1675:1 1697:1 1784:1 1813:1 1816:1 1822:1 1828:1 1845:1 1858:1 1876:1 1926:1 1960:1 1982:1 2010:1 2022:1 2046:2 2052:1 2069:1 2081:1 2115:1 2151:1 2152:1 2164:1 2170:1 2209:1 2211:1 2220:2 2224:2 2242:1 2330:1 2345:1 2355:2 2385:1 2412:1 2419:1 2425:1 2440:1 2502:1 2505:1 2530:1 2541:1 2543:1 2550:1 2569:1 2572:1 2588:1 2591:1 2593:1 2601:1 2608:2 2610:1 2629:1 2635:1 2637:1 2647:1 2661:2 2670:2 2677:1 2682:1 2687:1 2707:1 2762:1}\n'
tp60
a(S't # 59 * 64\n'
S'v 0 1\nv 1 11\n'
S'v 1 11\n'
S'e 0 1 0\n'
S'e 0 1 0\n'
S' {81:1 139:1 544:1 1037:1 1207:1 1240:1 1271:3 1378:1 1462:1 1519:1 1561:1 1593:1 1596:1 1619:1 1629:2 1636:1 1643:1 1675:1 1688:1 1702:1 1740:1 1749:1 1765:1 1773:1 1778:1 1815:1 1816:1 1820:1 1829:1 1882:1 1887:2 1892:2 1898:1 1934:1 1960:1 1968:1 1975:1 1979:1 2007:1 2035:1 2124:1 2162:1 2167:1 2220:1 2244:1 2246:1 2279:1 2310:1 2338:1 2401:1 2423:1 2440:1 2441:1 2456:1 2525:1 2566:1 2608:1 2609:1 2622:1 2639:1 2646:1 2693:1 2712:1 2799:1}\n'
tp61
a(S't # 60 * 3\n'
S'v 0 4\nv 1 11\nv 2 4\nv 3 11\nv 4 11\n'
S'v 4 11\n'
S'e 0 1 3\ne 0 3 3\ne 1 2 3\ne 1 3 3\ne 2 3 3\ne 3 4 3\n'
S'e 3 4 3\n'
S' {1266:8 1412:2 1563:4}\n'
tp62
a(S't # 61 * 528\n'
S'v 0 4\nv 1 11\n'
S'v 1 11\n'
S'e 0 1 3\n'
S'e 0 1 3\n'
S' {7:1 12:3 21:1 23:1 34:1 43:9 46:1 50:3 52:1 53:1 56:11 57:11 62:3 66:1 67:2 84:2 88:2 89:1 94:3 96:1 98:1 107:1 110:4 112:5 115:1 118:1 125:6 129:2 134:2 136:4 144:1 147:3 149:3 165:1 166:1 168:1 170:9 175:1 178:5 185:1 186:1 200:1 201:4 207:1 214:8 216:1 217:5 222:4 227:5 230:1 231:2 232:2 239:2 240:1 241:1 254:2 259:2 262:1 263:2 267:4 273:6 274:2 279:8 280:2 281:2 287:2 300:2 304:4 305:2 306:2 309:4 320:1 326:1 327:7 329:15 332:9 337:3 339:2 342:1 343:1 344:2 345:1 348:2 354:3 356:3 360:4 364:1 365:2 367:1 373:1 374:4 379:4 390:1 391:1 397:2 398:1 405:1 408:7 411:1 412:1 415:2 421:1 433:1 435:2 437:2 438:1 440:1 446:16 447:4 448:3 449:14 461:2 465:1 466:2 469:3 470:1 480:4 483:1 485:3 486:1 497:3 500:2 501:7 502:1 510:2 511:3 512:3 513:1 518:2 521:2 530:2 534:1 543:1 544:2 546:3 547:1 549:3 552:6 556:4 557:5 558:1 559:1 565:2 571:1 572:1 574:1 576:4 581:11 586:3 593:2 597:1 602:1 605:1 608:4 614:3 616:3 617:2 618:8 626:6 627:8 628:1 630:6 640:3 642:4 645:1 646:1 648:1 650:1 654:2 662:2 666:7 667:2 672:3 674:1 681:1 687:1 689:6 690:1 692:5 696:1 700:4 701:5 705:8 711:9 715:1 728:1 729:8 739:1 760:1 763:2 765:8 766:3 771:1 772:1 774:4 784:6 790:7 795:1 796:8 801:12 806:2 811:1 815:5 817:6 818:1 821:1 825:1 831:1 836:1 845:1 848:7 851:2 861:3 862:4 863:1 868:7 877:2 883:1 888:3 889:2 895:4 896:1 897:1 900:5 909:7 919:2 920:2 925:2 928:1 931:1 932:1 934:1 941:1 944:1 947:3 948:1 963:1 971:2 972:3 974:3 976:1 980:1 982:2 983:3 985:2 989:1 994:6 998:1 999:1 1004:3 1005:1 1009:1 1011:1 1012:6 1017:2 1018:6 1021:1 1039:5 1042:4 1048:1 1053:2 1056:7 1058:1 1059:4 1070:1 1071:1 1074:3 1075:5 1077:2 1078:1 1085:3 1086:1 1089:9 1105:2 1106:7 1117:2 1119:1 1121:2 1128:2 1130:4 1136:6 1145:8 1153:1 1155:2 1170:1 1174:2 1192:2 1193:1 1198:1 1207:14 1212:9 1213:2 1222:1 1223:1 1224:4 1228:6 1229:10 1230:2 1232:3 1235:1 1236:3 1238:1 1253:7 1258:4 1266:13 1268:3 1270:6 1271:2 1272:5 1273:3 1275:2 1283:1 1287:4 1291:1 1293:1 1296:2 1298:2 1300:2 1311:4 1312:1 1313:4 1315:6 1316:1 1319:9 1320:8 1323:2 1329:2 1331:4 1335:1 1336:5 1337:1 1342:1 1344:1 1345:1 1348:5 1351:2 1352:6 1353:1 1367:1 1376:3 1379:3 1382:1 1388:3 1389:3 1392:5 1403:1 1412:9 1414:2 1419:8 1429:3 1437:1 1440:1 1446:1 1456:5 1461:3 1462:3 1467:10 1471:1 1474:1 1475:4 1481:6 1483:2 1486:2 1487:12 1501:2 1502:1 1503:2 1507:2 1509:2 1519:1 1528:1 1546:1 1557:1 1559:3 1561:2 1563:8 1567:1 1568:1 1593:2 1595:1 1597:1 1601:1 1618:1 1621:1 1629:1 1640:1 1643:1 1649:1 1651:1 1658:1 1660:1 1677:1 1680:3 1688:1 1703:1 1715:1 1716:2 1721:3 1725:1 1731:1 1735:1 1745:1 1748:1 1757:1 1770:2 1773:1 1776:1 1778:3 1802:2 1811:2 1816:1 1824:2 1836:1 1844:2 1864:2 1866:2 1892:3 1904:4 1913:2 1915:2 1916:1 1920:2 1930:1 1932:1 1960:1 1966:1 1967:1 1973:1 1977:1 1987:1 2001:1 2012:1 2038:1 2049:1 2062:1 2064:15 2072:1 2078:1 2080:1 2116:1 2117:2 2120:1 2124:1 2125:1 2130:2 2141:5 2143:1 2144:1 2158:1 2163:2 2166:1 2168:3 2174:1 2176:2 2185:1 2187:1 2205:1 2210:3 2249:2 2251:2 2269:1 2275:1 2294:1 2311:2 2312:2 2314:1 2317:2 2327:1 2334:1 2343:1 2365:1 2370:2 2375:1 2392:1 2399:1 2402:1 2410:1 2418:1 2440:1 2445:1 2455:1 2456:1 2460:1 2462:1 2469:1 2480:4 2521:1 2522:1 2528:2 2540:2 2545:1 2547:1 2555:2 2558:1 2559:4 2566:1 2580:1 2581:1 2590:1 2597:7 2603:1 2607:1 2608:2 2611:6 2618:3 2622:1 2623:1 2633:3 2635:1 2637:1 2640:1 2651:1 2657:2 2673:1 2674:1 2676:1 2688:2 2690:1 2712:3 2733:1 2743:1 2755:2 2760:1 2767:1 2772:2 2778:1 2781:1 2782:1}\n'
tp63
a(S't # 62 * 275\n'
S'v 0 12\nv 1 12\n'
S'v 1 12\n'
S'e 0 1 0\n'
S'e 0 1 0\n'
S' {1:4 5:2 18:6 25:2 36:2 38:6 61:8 73:6 79:6 82:4 90:2 91:2 102:2 116:2 121:12 127:4 152:2 156:8 164:4 167:2 168:2 176:4 204:4 212:2 223:2 225:2 233:4 238:6 264:2 284:4 292:2 299:2 301:2 302:6 303:2 315:12 318:2 319:2 328:2 345:4 350:4 353:4 357:6 362:2 365:2 398:2 400:2 402:6 405:2 416:2 426:2 430:6 432:2 436:28 440:2 441:2 472:2 475:8 479:4 483:2 491:10 493:4 494:6 505:4 509:4 516:16 529:16 537:6 539:2 541:18 554:2 559:2 570:2 573:10 581:2 583:2 584:2 604:2 611:4 615:8 621:16 635:14 637:2 641:10 644:6 655:2 656:2 660:2 665:6 669:8 681:4 697:12 712:6 742:4 746:8 777:2 778:2 781:6 804:4 805:2 807:2 811:2 820:2 823:4 825:2 832:2 849:2 856:2 860:2 864:2 865:4 868:2 882:2 892:6 893:2 903:6 906:2 908:4 915:6 921:10 932:4 940:4 943:2 958:4 965:2 970:2 974:2 986:4 991:2 996:6 1006:4 1024:2 1025:10 1030:2 1039:2 1048:4 1060:6 1065:2 1073:6 1088:2 1095:8 1116:2 1127:2 1131:6 1148:2 1149:6 1158:2 1160:2 1161:2 1163:2 1166:2 1169:4 1179:6 1184:2 1194:6 1215:12 1216:6 1226:6 1240:2 1244:8 1247:2 1256:8 1267:4 1269:2 1270:16 1278:6 1288:2 1294:6 1297:2 1299:4 1309:2 1312:2 1313:2 1318:4 1321:2 1337:4 1353:6 1357:6 1358:8 1369:6 1384:4 1398:2 1410:4 1415:4 1423:2 1425:2 1430:2 1447:2 1451:2 1455:4 1457:8 1459:6 1467:2 1481:2 1494:2 1504:8 1508:2 1509:2 1512:2 1516:2 1522:4 1524:2 1533:4 1549:2 1593:2 1594:2 1638:2 1655:4 1686:2 1690:2 1691:2 1692:4 1718:2 1743:4 1782:2 1785:2 1804:2 1824:2 1837:2 1841:2 1852:4 1854:2 1888:2 1977:2 2029:4 2049:2 2064:2 2078:4 2123:2 2182:2 2184:4 2212:2 2228:4 2237:2 2294:2 2298:4 2299:4 2341:2 2344:2 2345:2 2348:2 2357:4 2365:2 2377:4 2386:4 2417:2 2419:4 2420:2 2427:2 2447:2 2480:2 2495:2 2505:2 2527:2 2530:2 2539:2 2548:4 2574:2 2601:2 2603:4 2607:2 2608:2 2623:2 2633:2 2647:2 2649:4 2663:2 2669:4 2670:2 2673:2 2679:2 2705:2 2707:2 2743:2 2764:2}\n'
tp64
a(S't # 63 * 29\n'
S'v 0 2\nv 1 3\n'
S'v 1 3\n'
S'e 0 1 1\n'
S'e 0 1 1\n'
S' {256:1 791:2 840:1 942:1 1000:1 1005:1 1314:1 1498:1 1525:1 1600:1 1645:1 1657:1 1670:1 1687:1 1789:1 1799:1 1834:1 1925:1 1949:1 1984:1 2034:1 2076:1 2234:2 2306:2 2523:1 2568:1 2612:1 2746:1 2754:1}\n'
tp65
a(S't # 64 * 36\n'
S'v 0 5\nv 1 7\n'
S'v 1 7\n'
S'e 0 1 0\n'
S'e 0 1 0\n'
S' {166:1 544:1 948:1 1513:1 1647:1 1680:1 1693:1 1770:1 1775:1 1800:1 1826:1 1839:1 1880:1 1941:1 1999:1 2067:1 2079:2 2144:1 2198:1 2229:1 2245:1 2248:1 2328:1 2366:2 2447:1 2455:2 2457:1 2522:1 2545:1 2550:1 2594:1 2643:1 2731:1 2762:1 2779:1 2798:1}\n'
tp66
a(S't # 65 * 73\n'
S'v 0 3\nv 1 11\n'
S'v 1 11\n'
S'e 0 1 0\n'
S'e 0 1 0\n'
S' {34:1 135:1 173:1 184:2 193:1 267:1 268:1 273:1 347:1 497:1 673:1 692:2 705:1 864:1 948:1 1120:1 1190:2 1207:1 1231:1 1303:1 1314:1 1317:1 1347:2 1356:1 1404:1 1548:1 1560:1 1601:1 1613:1 1683:1 1688:1 1738:1 1740:1 1771:1 1789:2 1841:1 1864:1 1876:1 1921:1 1932:1 1972:1 1991:2 2038:2 2040:1 2062:1 2094:3 2114:1 2123:1 2137:1 2167:1 2177:1 2183:2 2230:2 2278:1 2293:1 2302:1 2319:1 2322:1 2350:2 2402:1 2445:1 2519:1 2580:1 2590:1 2607:1 2613:1 2614:1 2638:1 2655:1 2673:1 2707:1 2709:1 2716:1}\n'
tp67
a(S't # 66 * 30\n'
S'v 0 9\nv 1 10\n'
S'v 1 10\n'
S'e 0 1 0\n'
S'e 0 1 0\n'
S' {72:3 180:1 321:1 813:2 842:2 883:1 949:1 1214:1 1343:1 1364:1 1709:1 1755:2 1789:1 1790:1 1797:1 1943:1 1972:1 2018:1 2043:1 2069:1 2157:1 2164:1 2209:1 2387:1 2467:1 2493:1 2553:1 2567:1 2691:1 2708:2}\n'
tp68
a(S't # 67 * 30\n'
S'v 0 0\nv 1 5\n'
S'v 1 5\n'
S'e 0 1 0\n'
S'e 0 1 0\n'
S' {64:1 556:1 1020:1 1314:1 1369:1 1386:1 1512:1 1530:1 1611:1 1617:1 1665:1 1687:1 1754:1 1761:1 1891:1 1904:1 1918:3 1966:1 2060:1 2122:1 2186:1 2245:1 2371:1 2378:1 2447:1 2449:1 2673:1 2695:1 2786:1 2794:1}\n'
tp69
a(S't # 68 * 55\n'
S'v 0 1\nv 1 5\n'
S'v 1 5\n'
S'e 0 1 2\n'
S'e 0 1 2\n'
S' {523:1 945:1 948:1 1093:1 1235:1 1271:3 1386:2 1513:1 1521:1 1549:2 1557:1 1561:1 1644:1 1645:1 1656:1 1671:1 1750:1 1758:1 1816:1 1829:1 1859:1 1873:1 1878:1 1935:1 1941:1 1960:1 1994:1 2068:1 2069:1 2095:1 2151:1 2167:1 2191:1 2199:1 2220:1 2243:1 2284:1 2337:1 2345:1 2412:1 2419:1 2471:1 2473:1 2512:1 2523:1 2530:2 2550:2 2574:1 2610:2 2647:1 2673:1 2687:1 2762:3 2772:1 2779:1}\n'
tp70
a(S't # 69 * 80\n'
S'v 0 4\nv 1 6\n'
S'v 1 6\n'
S'e 0 1 0\n'
S'e 0 1 0\n'
S' {75:1 267:2 549:2 650:1 742:1 864:1 868:1 931:1 943:1 1213:1 1285:1 1474:1 1512:1 1528:2 1580:1 1593:1 1614:2 1628:1 1642:1 1684:1 1690:1 1712:1 1715:1 1716:1 1721:1 1747:1 1757:2 1763:1 1787:2 1789:1 1796:1 1811:1 1813:1 1864:1 1875:1 1883:1 1896:1 1901:1 1916:2 1948:1 1952:2 1977:1 2006:1 2023:1 2078:1 2109:1 2142:1 2151:1 2166:1 2168:1 2185:1 2187:1 2188:1 2233:1 2241:1 2246:1 2311:1 2316:1 2343:1 2357:1 2372:1 2399:1 2435:1 2455:1 2495:2 2498:2 2527:1 2528:1 2552:1 2564:1 2611:1 2624:1 2635:1 2651:1 2663:1 2676:1 2679:1 2742:1 2746:1 2793:1}\n'
tp71
a(S't # 70 * 13\n'
S'v 0 2\nv 1 2\n'
S'v 1 2\n'
S'e 0 1 0\n'
S'e 0 1 0\n'
S' {256:2 324:2 840:16 1173:2 1176:2 1301:6 1576:2 1645:2 1697:2 2281:2 2306:2 2487:2 2612:2}\n'
tp72
a(S't # 71 * 79\n'
S'v 0 5\nv 1 10\n'
S'v 1 10\n'
S'e 0 1 0\n'
S'e 0 1 0\n'
S' {19:2 72:1 95:1 154:1 268:1 321:1 358:1 434:1 473:2 673:2 707:1 864:2 993:1 1217:1 1220:1 1384:1 1396:1 1454:1 1472:1 1536:1 1543:1 1565:1 1566:1 1603:1 1645:2 1669:1 1687:1 1713:1 1772:1 1790:1 1824:1 1841:3 1867:1 1870:1 1897:2 1914:1 1939:1 2002:1 2007:1 2089:1 2091:1 2100:1 2116:1 2123:1 2129:2 2149:2 2169:1 2189:2 2221:1 2228:1 2260:1 2295:1 2327:1 2347:1 2353:1 2374:2 2375:1 2387:2 2437:1 2445:1 2449:1 2458:2 2461:1 2467:1 2495:1 2510:1 2534:1 2553:1 2590:1 2598:1 2650:2 2676:1 2680:1 2684:1 2701:1 2707:1 2716:1 2764:1 2769:1}\n'
tp73
a(S't # 72 * 31\n'
S'v 0 2\nv 1 12\n'
S'v 1 12\n'
S'e 0 1 0\n'
S'e 0 1 0\n'
S' {71:1 513:1 1314:3 1552:1 1576:1 1597:1 1600:1 1687:1 1713:1 1730:1 1763:1 1798:1 1864:1 1923:1 1941:2 1984:1 1995:2 2003:1 2084:2 2166:1 2252:1 2290:1 2337:1 2473:1 2523:1 2541:1 2659:1 2670:1 2677:1 2719:1 2759:1}\n'
tp74
a(S't # 73 * 16\n'
S'v 0 3\nv 1 3\nv 2 3\n'
S'v 2 3\n'
S'e 0 1 2\ne 1 2 2\n'
S'e 1 2 2\n'
S' {268:12 298:2 386:34 495:10 515:2 624:2 636:4 698:2 813:2 993:2 1168:2 1190:22 1432:16 1488:4 2519:2 2751:14}\n'
tp75
a(S't # 74 * 64\n'
S'v 0 3\nv 1 3\n'
S'v 1 3\n'
S'e 0 1 2\n'
S'e 0 1 2\n'
S' {113:2 117:2 173:2 193:2 261:2 268:16 298:6 375:2 386:26 422:2 425:4 477:2 495:12 515:4 560:2 624:10 636:8 650:2 698:6 718:2 791:4 808:2 813:4 886:2 898:4 917:2 948:2 993:4 1084:4 1098:4 1115:6 1120:2 1168:8 1190:18 1195:2 1243:2 1314:2 1347:2 1432:14 1488:8 1498:2 1548:2 1664:2 1687:2 1709:2 1914:2 1925:2 1972:2 2038:2 2088:2 2156:2 2183:2 2319:2 2332:2 2358:2 2364:2 2434:2 2445:2 2519:4 2586:4 2708:2 2747:2 2751:12 2754:2}\n'
tp76
a(S't # 75 * 54\n'
S'v 0 3\nv 1 12\n'
S'v 1 12\n'
S'e 0 1 2\n'
S'e 0 1 2\n'
S' {164:1 180:1 208:1 273:1 386:1 402:3 532:1 570:1 993:1 1190:4 1303:1 1314:2 1317:2 1404:1 1531:1 1533:1 1549:2 1560:1 1578:1 1594:1 1638:1 1712:1 1812:1 1822:2 1841:2 1932:1 1952:1 1982:1 1996:1 2078:1 2100:1 2129:1 2192:1 2230:2 2254:1 2256:1 2278:1 2285:1 2302:1 2304:1 2324:1 2328:1 2341:1 2345:1 2350:1 2409:1 2443:1 2450:1 2517:1 2523:1 2673:2 2676:1 2704:2 2707:1}\n'
tp77
a(S't # 76 * 22\n'
S'v 0 1\nv 1 3\n'
S'v 1 3\n'
S'e 0 1 0\n'
S'e 0 1 0\n'
S' {113:2 347:1 813:1 922:1 948:1 1120:1 1314:1 1560:1 1591:1 1645:1 1671:1 1972:1 1982:1 2191:1 2255:1 2468:1 2523:1 2527:1 2568:1 2660:1 2708:1 2720:1}\n'
tp78
a(S't # 77 * 35\n'
S'v 0 1\nv 1 12\n'
S'v 1 12\n'
S'e 0 1 0\n'
S'e 0 1 0\n'
S' {267:1 792:1 1240:1 1314:1 1513:2 1549:2 1622:1 1635:1 1723:1 1746:1 1829:1 1895:1 1926:1 1960:1 1994:1 2052:1 2081:1 2164:1 2191:2 2209:1 2257:1 2258:1 2408:1 2412:1 2451:1 2530:1 2542:1 2569:1 2574:1 2591:1 2626:1 2664:1 2673:1 2696:1 2762:1}\n'
tp79
a(S't # 78 * 31\n'
S'v 0 2\nv 1 11\n'
S'v 1 11\n'
S'e 0 1 0\n'
S'e 0 1 0\n'
S' {7:1 180:1 705:1 815:1 942:1 1154:1 1220:1 1257:1 1271:1 1314:1 1529:1 1544:1 1593:1 1597:1 1644:1 1675:2 1687:2 1697:1 1702:1 1735:1 1819:1 1912:1 1932:1 2141:1 2161:1 2540:1 2563:1 2653:1 2665:1 2734:1 2761:1}\n'
tp80
a(S't # 79 * 24\n'
S'v 0 2\nv 1 9\n'
S'v 1 9\n'
S'e 0 1 1\n'
S'e 0 1 1\n'
S' {22:1 101:1 113:1 321:1 324:4 757:1 815:1 840:9 864:1 883:1 1076:1 1271:1 1301:12 1632:1 1764:1 1802:1 1842:1 1884:1 1932:1 1941:1 2173:1 2259:1 2463:1 2580:1}\n'
tp81
a(S't # 80 * 19\n'
S'v 0 6\nv 1 6\n'
S'v 1 6\n'
S'e 0 1 1\n'
S'e 0 1 1\n'
S' {33:2 91:2 551:2 669:4 708:2 839:2 846:14 901:2 1013:2 1166:2 1912:2 1916:2 1952:2 2168:2 2219:2 2238:2 2394:2 2530:2 2697:2}\n'
tp82
a(S't # 81 * 23\n'
S'v 0 7\nv 1 12\n'
S'v 1 12\n'
S'e 0 1 0\n'
S'e 0 1 0\n'
S' {241:2 544:1 632:1 1046:1 1108:1 1413:1 1522:1 1565:1 1587:1 1759:1 1763:1 1873:1 1938:1 1962:1 2083:1 2115:1 2248:1 2328:1 2360:1 2395:1 2426:1 2594:1 2601:1}\n'
tp83
a(S't # 82 * 39\n'
S'v 0 9\nv 1 12\n'
S'v 1 12\n'
S'e 0 1 0\n'
S'e 0 1 0\n'
S' {365:1 402:1 507:2 532:1 618:1 864:1 891:1 1005:1 1533:1 1588:1 1592:1 1690:4 1750:1 1842:1 1859:1 1899:1 1941:1 2004:1 2005:1 2033:1 2037:1 2116:1 2123:1 2173:1 2267:1 2271:1 2336:1 2341:1 2343:3 2350:1 2423:2 2485:1 2511:1 2517:2 2534:1 2553:1 2588:1 2611:1 2676:2}\n'
tp84
a(S't # 83 * 48\n'
S'v 0 4\nv 1 7\n'
S'v 1 7\n'
S'e 0 1 2\n'
S'e 0 1 2\n'
S' {111:1 166:1 251:1 367:1 544:1 590:1 627:1 705:2 792:1 818:1 889:1 948:1 1108:1 1167:1 1232:1 1528:1 1561:3 1595:1 1630:1 1637:1 1680:2 1688:2 1712:1 1778:1 1856:1 1880:1 1924:1 1934:1 1971:1 2163:1 2229:1 2236:3 2248:1 2269:1 2280:1 2310:1 2314:2 2329:1 2342:1 2370:1 2455:1 2522:1 2601:1 2643:1 2683:1 2727:2 2731:1 2754:1}\n'
tp85
a(S't # 84 * 25\n'
S'v 0 1\nv 1 9\n'
S'v 1 9\n'
S'e 0 1 0\n'
S'e 0 1 0\n'
S' {815:1 993:1 1093:1 1271:1 1520:1 1586:1 1750:1 1773:1 1789:1 1859:1 1942:1 2035:1 2069:2 2095:1 2212:1 2246:1 2320:1 2329:2 2534:1 2575:1 2656:1 2675:1 2696:1 2720:1 2768:1}\n'
tp86
a(S't # 85 * 17\n'
S'v 0 3\nv 1 6\n'
S'v 1 6\n'
S'e 0 1 1\n'
S'e 0 1 1\n'
S' {868:1 1594:1 1661:1 1670:1 1671:1 1787:1 1789:1 1795:1 1841:1 2040:1 2156:1 2228:1 2375:1 2442:1 2450:1 2690:1 2746:1}\n'
tp87
a(S't # 86 * 46\n'
S'v 0 4\nv 1 9\n'
S'v 1 9\n'
S'e 0 1 0\n'
S'e 0 1 0\n'
S' {22:1 71:1 72:1 113:1 521:1 618:1 741:1 757:2 784:2 823:1 883:1 1005:1 1108:1 1519:1 1526:1 1582:1 1588:1 1629:1 1632:1 1690:1 1700:1 1737:1 1794:1 1802:1 1805:1 1923:1 1932:2 2018:1 2035:1 2132:1 2162:1 2250:1 2280:1 2283:1 2343:1 2527:1 2554:1 2567:1 2580:1 2637:1 2667:1 2668:1 2712:1 2720:1 2753:1 2768:1}\n'
tp88
a(S't # 87 * 321\n'
S'v 0 4\nv 1 12\n'
S'v 1 12\n'
S'e 0 1 2\n'
S'e 0 1 2\n'
S' {1:1 10:1 25:1 38:2 42:1 46:1 67:1 89:1 98:1 103:1 107:1 108:1 110:1 123:1 127:1 136:1 149:4 165:1 168:3 170:1 175:1 176:1 207:1 222:1 233:1 241:1 262:2 264:1 267:1 270:1 280:1 281:2 313:1 326:2 327:1 329:2 337:1 339:2 345:1 350:3 365:1 398:2 400:1 405:3 407:2 411:1 440:2 444:1 447:2 466:1 472:2 480:1 486:1 513:1 540:1 544:1 554:1 556:2 559:1 568:1 617:4 618:3 622:1 632:1 637:1 646:1 651:1 667:1 669:2 672:1 681:4 694:1 700:2 725:1 729:1 735:1 739:1 742:2 760:1 765:4 778:1 782:1 787:1 805:1 811:2 823:1 827:1 845:2 848:4 868:3 871:1 874:1 884:1 925:1 932:1 941:1 943:1 947:3 954:1 957:1 958:1 967:1 986:2 1010:2 1018:1 1039:6 1046:1 1048:2 1056:2 1089:1 1095:1 1097:1 1105:2 1108:1 1114:1 1118:1 1153:1 1175:1 1184:1 1187:2 1191:1 1203:1 1207:2 1222:3 1224:2 1225:1 1229:1 1237:1 1247:2 1248:1 1251:1 1256:1 1258:1 1269:1 1270:7 1293:1 1302:1 1312:1 1313:3 1320:1 1337:1 1351:1 1353:4 1357:2 1369:1 1371:1 1377:2 1379:1 1384:1 1392:1 1396:1 1413:1 1424:1 1429:2 1430:1 1453:1 1458:1 1467:3 1468:1 1474:2 1513:1 1516:2 1521:1 1534:1 1541:1 1556:1 1557:2 1568:1 1582:1 1593:2 1594:1 1595:1 1598:1 1609:1 1618:1 1628:2 1629:1 1636:2 1637:1 1641:1 1651:1 1656:1 1660:1 1667:1 1672:1 1678:1 1687:2 1688:1 1690:1 1703:1 1715:1 1719:1 1720:2 1725:1 1747:1 1748:1 1750:1 1763:1 1770:1 1778:2 1781:1 1782:1 1787:1 1802:2 1804:3 1811:1 1816:1 1824:1 1829:1 1833:1 1838:1 1842:1 1844:3 1853:1 1864:2 1880:1 1892:2 1904:1 1913:1 1923:1 1932:1 1962:1 1966:1 1970:1 1977:1 1991:1 2007:1 2008:1 2009:1 2031:1 2038:2 2045:1 2049:2 2060:1 2066:1 2078:1 2084:2 2092:1 2103:1 2104:1 2109:1 2116:1 2133:1 2141:1 2158:1 2166:3 2168:1 2182:1 2185:1 2187:1 2188:2 2198:1 2205:1 2228:1 2230:1 2249:1 2269:1 2275:1 2287:2 2300:1 2301:1 2312:1 2314:1 2333:1 2343:3 2348:1 2357:1 2365:1 2370:1 2379:1 2392:1 2410:1 2417:4 2418:1 2419:2 2439:1 2445:2 2453:1 2454:1 2460:1 2480:3 2495:3 2498:2 2505:1 2521:2 2527:1 2555:1 2558:1 2559:1 2570:1 2581:1 2603:1 2607:1 2611:1 2618:2 2621:2 2623:1 2640:1 2643:1 2647:2 2649:3 2662:1 2663:1 2666:1 2673:1 2674:2 2679:1 2684:1 2688:3 2690:1 2698:1 2699:1 2710:1 2733:2 2740:1 2743:1 2746:1 2772:1 2776:1 2780:2 2796:1}\n'
tp89
a(S't # 88 * 90\n'
S'v 0 5\nv 1 8\n'
S'v 1 8\n'
S'e 0 1 0\n'
S'e 0 1 0\n'
S' {7:1 71:2 241:1 321:2 823:1 945:1 1020:1 1093:2 1207:1 1289:1 1524:1 1525:1 1532:1 1544:1 1551:1 1553:1 1587:2 1593:3 1618:1 1620:1 1670:1 1686:1 1690:1 1715:1 1730:1 1759:1 1761:2 1764:1 1792:1 1824:1 1848:1 1887:1 1892:1 1895:1 1917:1 1921:1 1932:1 1946:1 1948:1 1966:1 1984:1 1990:1 1993:1 2002:1 2003:1 2004:1 2033:1 2037:1 2064:2 2072:1 2074:1 2082:1 2084:1 2087:1 2091:2 2107:1 2119:1 2153:2 2169:1 2199:1 2200:2 2243:1 2248:1 2325:1 2337:1 2362:1 2370:1 2384:1 2429:1 2437:1 2463:1 2487:1 2488:1 2500:1 2507:1 2508:1 2516:1 2549:1 2553:1 2581:1 2596:1 2601:1 2619:1 2626:1 2664:1 2696:2 2705:1 2706:1 2710:1 2776:1}\n'
tp90
a(S't # 89 * 98\n'
S'v 0 5\nv 1 13\n'
S'v 1 13\n'
S'e 0 1 1\n'
S'e 0 1 1\n'
S' {24:1 40:1 64:1 71:1 91:2 224:2 226:2 257:1 392:1 416:1 464:1 527:1 548:2 583:1 585:1 604:1 673:1 712:1 742:3 820:1 846:1 864:1 897:1 1093:1 1094:3 1097:1 1123:3 1165:1 1187:1 1207:1 1309:1 1355:1 1374:1 1386:1 1433:1 1521:1 1544:1 1557:1 1558:1 1587:2 1594:1 1610:1 1620:1 1624:1 1651:1 1758:1 1770:1 1795:1 1796:1 1804:1 1810:1 1836:1 1838:1 1841:2 1854:1 1870:1 1883:1 1904:1 1918:1 1920:1 1943:1 1994:1 2047:1 2068:1 2112:1 2138:1 2168:1 2173:1 2182:1 2198:1 2219:1 2238:2 2251:1 2308:1 2366:1 2370:1 2374:1 2404:1 2417:1 2430:1 2436:1 2498:1 2500:1 2527:1 2528:1 2547:1 2550:2 2561:2 2566:1 2590:1 2611:1 2641:1 2673:1 2689:3 2721:1 2763:1 2764:1 2801:2}\n'
tp91
a(S't # 90 * 36\n'
S'v 0 7\nv 1 8\n'
S'v 1 8\n'
S'e 0 1 0\n'
S'e 0 1 0\n'
S' {51:1 250:1 251:1 371:1 478:1 609:2 945:1 948:1 1167:1 1528:1 1581:1 1630:1 1631:1 1688:2 1693:1 1701:1 1704:1 1712:1 1759:1 1850:1 1961:1 1971:1 2003:1 2036:1 2074:1 2096:1 2135:1 2223:1 2289:1 2310:1 2328:1 2511:1 2535:1 2547:1 2556:1 2683:1}\n'
tp92
a(S't # 91 * 64\n'
S'v 0 10\nv 1 10\n'
S'v 1 10\n'
S'e 0 1 1\n'
S'e 0 1 1\n'
S' {34:2 77:12 83:28 151:4 173:2 174:4 268:14 298:10 351:6 384:4 403:4 422:2 450:4 518:2 624:6 673:2 699:2 813:2 831:6 832:12 842:2 942:2 975:2 977:4 1069:2 1112:4 1120:2 1190:2 1239:2 1276:6 1332:2 1343:2 1364:28 1370:4 1432:2 1488:2 1661:2 1666:2 1687:4 1755:2 1798:2 1897:2 1921:2 1981:2 2077:2 2099:2 2117:2 2129:2 2189:2 2228:2 2261:2 2295:2 2327:2 2353:2 2387:2 2388:2 2589:2 2615:2 2634:2 2676:2 2684:2 2728:2 2764:2 2770:2}\n'
tp93
a(S't # 92 * 12\n'
S'v 0 13\nv 1 13\n'
S'v 1 13\n'
S'e 0 1 2\n'
S'e 0 1 2\n'
S' {17:2 64:2 224:2 527:2 1029:2 1094:2 1324:2 1374:2 1593:2 2168:2 2550:2 2559:2}\n'
tp94
a.I93
.