cnumpy.core.multiarray
_reconstruct
p1
(cnumpy
ndarray
p2
(I0
tS'b'
tRp3
(I1
(L75L
tcnumpy
dtype
p4
(S'f8'
I0
I1
tRp5
(I3
S'<'
NNNI-1
I-1
I0
tbI00
S'\xf1J\xd1\x95\xf7\x8b\xd4?\xcaW\x94\xdatd\xe1?\xca\x16 \xe9\xe6\xd8\xe1?\xe9\xe3\x07\xad\xfd\xae\xe6?9\r\xcb\xe8\x0b\xad\xe9?V\xc5\x84\x17#h\xe4?Z;\xfd\xbe}#\xdc?\x04a\xf6\xee\xdd\x03\xe9?\x04\x8a?\x1b\xe8\xa5\xf0?\xc0,/=\xa0p\xf8?FA*z \x85\xec?\xf9(\xa8\xcdx\x9b\xef?\xdb\x9f\xb6\x96\xe02\xf9?\xa6`\xb9\x05\xad*\xe3?\x8c\xb4\xc9\xd3\xb6\xe6\xf9?\xbc\x9fY\xc32\x81\xf3?\x83@^\x8c"\xfa\xeb?,!gx>\xf0\xf4?\x8cV"o\xc7\xdd\xf5?\x8c\xb4\xc9\xd3\xb6\xe6\xf9?\xaaQ\x8c)<\xee\xf1?\xab\x16\xfb]\x88\x92\xfc?+8\xd3\x89\x83\xc1\xf7?\xbc\xe50I\xf2J\xf6?\x0bL\xb6T\x11\x80\xfd?\x8a8\x84F\xdd\x0c\xeb?\x9a\xb82G\x90\x8f\xf8?4>\x06\xb1\xf0\x84\xfa?\xac\x8e\x06\xd2\xc2\xc0\xfd?\x8bm\x8e\x80\x0c\xaf\xf8?\xeb\xa2Iw\x95\x9c\xf9?\xac\xa5r\xe3\x07\x92\xf0?\xdb\x9f\xb6\x96\xe02\xf9?\x0bL\xb6T\x11\x80\xfd?\x15,\xab\xb8-\xeb\x00@\x9a\xb82G\x90\x8f\xf8?\xc6\xba \xe1t\xd7\xf6?\xb0\xa1\xd0\xed\xf2@\xe6?+8\xd3\x89\x83\xc1\xf7?\rWc\x16\xed\x18\x00@<~\x81\x977R\xf8?\xc9x\xbb\xa6\xda{\x00@\xfc\thL\x06p\xf7?\xc0,/=\xa0p\xf8?\xab\x16\xfb]\x88\x92\xfc?,\xc7J\x0f\x03\xc1\xfb?YW\xa6%\xe9\x9b\xea?\x8c\xb4\xc9\xd3\xb6\xe6\xf9?@\x0bW\x11\xa5A\xfd?4>\x06\xb1\xf0\x84\xfa?x`\xab\x03\xe4h\xec?*\xb2r\xda\x96\x05\xfb?\xdb\x9f\xb6\x96\xe02\xf9?\x13\x13Oy\xb0&\xfc?;\xcbIN\x10-\xff?*0\xb4\xfd@\xbf\xf6?\x8bm\x8e\x80\x0c\xaf\xf8?6\xc9\xed\x1a\x838\xe8?V^oz\xa6\xb1\x01@+\x97\xfe\x8d\xf8\x0c\xfa?+\x9b\x06\xc9Q4\xf8?\xaaQ\x8c)<\xee\xf1?\xabu&b\xfd\xdd\xfe?\xd6R\xb9\xf1\x03I\x00@E\x15o\x14\x8b(\x01@+\xde\xb6 H\x92\xfe?\x8b\x13r\x17\xd1\x7f\xff?\n\t\x06\xfd\x1a"\xf7?\x0bL\xb6T\x11\x80\xfd?\xbc\xec!z\x0b\\\xfa?+\x97\xfe\x8d\xf8\x0c\xfa?\x8b\x13r\x17\xd1\x7f\xff?\x8b\x13r\x17\xd1\x7f\xff?\xc1\x15\xc3+[\x9f\xf5?\x13\xfc\xe2gkU\xf9?'
tb.(lp1
(S't # 0 * 932\n'
S'v 0 4\nv 1 11\n'
S'v 1 11\n'
S'e 0 1 0\n'
S'e 0 1 0\n'
S' {3:2 4:5 5:1 6:5 7:1 9:1 11:1 12:7 13:8 15:3 18:1 20:1 25:3 26:1 30:2 31:1 32:1 33:1 34:4 36:2 37:3 39:1 41:3 44:2 46:1 47:1 48:1 49:3 53:2 56:3 57:3 58:1 59:1 60:1 61:3 62:1 63:2 64:1 69:5 70:2 71:3 72:2 73:5 74:3 75:2 78:1 79:1 80:2 81:4 83:3 84:5 85:1 86:2 88:3 92:1 93:2 96:1 98:1 103:2 105:2 106:1 107:1 108:1 111:4 115:3 116:1 117:2 119:2 121:1 122:1 123:1 124:2 126:1 127:5 128:5 129:1 132:4 135:2 136:3 138:1 140:1 141:3 143:1 144:1 146:1 147:5 152:1 153:4 155:1 156:1 157:2 159:6 163:3 164:2 165:7 168:2 170:2 171:4 172:5 175:2 176:1 177:1 178:2 179:1 181:2 182:2 188:4 189:2 190:1 194:1 199:3 203:1 207:5 208:10 209:1 210:2 212:1 213:2 214:4 215:2 216:1 217:2 219:1 220:4 221:1 222:1 223:1 226:1 227:2 228:2 229:2 233:3 235:1 240:3 243:3 244:1 245:1 246:2 247:7 249:1 250:1 252:3 253:1 256:6 257:2 260:3 261:1 263:3 264:2 265:1 268:2 270:1 271:1 272:1 273:1 274:3 275:1 277:6 278:3 280:3 281:2 283:1 285:6 287:3 288:8 297:6 298:1 299:1 300:4 301:1 307:2 308:3 311:2 312:2 315:1 316:8 317:1 319:2 324:1 325:2 326:5 328:2 329:2 331:2 332:1 333:1 334:6 338:2 339:1 340:2 341:3 342:2 343:2 344:1 345:4 347:3 350:7 351:3 352:10 353:2 355:1 356:3 357:1 358:2 360:1 361:2 362:8 366:2 373:2 374:5 378:1 382:2 383:3 385:9 389:2 392:2 393:1 394:2 397:1 402:2 403:1 407:2 410:8 420:1 424:1 427:5 430:3 431:1 437:9 438:1 441:1 442:2 443:3 446:1 448:1 449:1 450:3 453:2 454:5 455:2 456:1 460:3 461:1 464:2 475:1 477:2 480:3 483:2 486:4 487:9 489:4 490:3 491:2 492:5 495:3 496:3 497:1 498:1 503:1 504:2 507:1 508:4 510:2 512:2 514:4 515:2 517:3 520:5 521:1 524:2 525:1 527:2 528:8 529:3 530:2 532:1 534:2 535:2 541:3 543:2 545:2 546:2 548:5 549:2 551:3 552:2 556:2 557:1 558:3 560:3 561:1 564:3 568:2 570:1 574:3 576:2 577:1 581:3 582:1 584:2 586:3 588:7 589:2 592:2 594:1 599:3 602:2 607:2 609:1 610:2 611:1 612:1 613:1 614:3 616:1 617:1 619:1 621:1 622:3 626:3 628:6 629:2 630:1 632:2 634:2 635:1 638:1 639:1 640:2 642:1 643:3 644:2 646:1 648:2 649:2 651:4 652:5 654:2 656:3 659:3 660:2 661:2 662:2 667:1 668:3 669:1 670:1 671:1 672:3 673:1 679:1 681:1 682:2 685:1 686:1 687:2 689:3 690:6 691:1 692:1 693:2 694:5 695:1 698:1 700:1 701:1 702:3 703:4 704:2 705:1 706:2 708:2 709:2 711:5 713:1 714:3 718:3 719:3 720:6 721:3 723:1 725:5 727:1 730:4 734:3 738:1 739:1 740:1 741:2 744:1 745:3 755:2 756:2 757:2 758:2 759:1 760:3 762:2 763:2 765:3 768:1 772:1 773:2 774:1 777:6 779:2 780:2 782:1 788:2 789:4 791:1 792:3 795:1 796:3 797:4 798:9 799:1 800:1 801:5 803:6 805:6 807:1 808:2 809:3 810:6 811:3 812:3 813:4 814:1 815:1 817:2 819:3 820:3 821:2 823:1 824:2 825:3 827:2 831:2 832:2 833:1 835:1 838:4 840:1 841:4 843:1 844:3 846:2 847:2 854:4 858:6 861:1 863:1 866:1 867:1 868:4 871:2 872:1 873:1 875:2 877:2 880:4 882:1 883:1 891:2 892:9 896:1 899:3 901:1 902:1 906:2 907:2 910:1 911:4 913:2 914:2 917:1 918:3 919:5 920:2 922:1 923:4 924:3 925:2 927:3 933:3 935:1 936:4 942:3 943:1 944:2 945:3 948:3 951:2 954:1 960:3 961:1 963:1 964:2 966:3 970:1 974:1 975:1 977:2 980:4 981:7 982:1 983:4 985:3 990:1 991:3 993:2 994:1 995:1 997:6 1001:1 1006:1 1009:5 1011:2 1013:1 1015:1 1017:2 1018:2 1019:1 1021:1 1022:2 1026:2 1029:3 1031:1 1034:1 1039:2 1040:1 1042:1 1044:3 1045:1 1046:1 1047:1 1051:1 1052:1 1055:1 1056:2 1058:3 1062:1 1065:1 1072:2 1074:1 1075:2 1076:1 1080:2 1081:1 1086:1 1090:3 1091:1 1092:1 1093:1 1094:1 1097:1 1098:1 1099:2 1101:2 1102:1 1103:1 1106:1 1107:2 1109:1 1110:1 1111:1 1116:1 1117:1 1118:2 1119:1 1120:1 1129:1 1130:1 1131:2 1133:1 1135:1 1137:1 1139:1 1141:1 1142:1 1144:1 1145:1 1149:1 1150:9 1152:1 1153:1 1155:1 1156:1 1157:1 1158:3 1159:2 1160:1 1162:1 1163:1 1165:1 1166:2 1167:2 1169:1 1170:2 1171:1 1173:1 1174:1 1178:1 1179:1 1181:1 1182:1 1183:2 1184:4 1188:1 1199:1 1200:1 1201:1 1214:1 1218:1 1220:1 1222:3 1223:3 1224:2 1230:3 1233:1 1234:3 1236:3 1237:1 1239:1 1242:1 1247:1 1248:1 1249:1 1250:3 1254:1 1255:1 1259:1 1261:3 1262:1 1264:1 1267:1 1269:1 1270:1 1272:1 1273:1 1274:1 1278:1 1282:3 1286:1 1287:1 1288:1 1291:1 1293:1 1295:1 1297:1 1298:1 1301:3 1302:1 1304:1 1306:1 1309:1 1310:1 1311:1 1314:1 1315:1 1316:1 1317:1 1318:1 1319:1 1324:1 1326:1 1329:1 1331:2 1334:1 1335:1 1336:2 1344:1 1346:1 1347:1 1351:1 1354:1 1355:1 1357:1 1358:1 1360:1 1363:2 1364:2 1366:2 1367:1 1368:1 1369:1 1371:1 1375:1 1376:1 1378:1 1380:1 1382:2 1384:2 1385:1 1387:1 1393:1 1395:4 1396:1 1397:1 1398:1 1400:1 1403:1 1404:1 1410:2 1412:1 1413:3 1419:1 1422:1 1423:1 1426:4 1427:1 1430:1 1431:2 1432:1 1433:1 1435:3 1438:1 1441:1 1442:1 1450:1 1452:1 1455:2 1458:1 1460:1 1462:1 1465:1 1467:2 1468:1 1471:1 1473:1 1474:1 1477:1 1479:1 1483:2 1485:1 1486:2 1487:1 1492:1 1494:2 1495:1 1497:1 1499:1 1500:1 1501:2 1507:1 1509:1 1511:2 1512:1 1513:1 1514:3 1515:1 1517:1 1520:1 1521:1 1522:1 1530:3 1531:4 1532:1 1535:1 1537:1 1538:5 1539:2 1541:3 1542:1 1545:1 1548:1 1549:1 1553:1 1554:1 1559:1 1560:1 1562:1 1563:1 1564:1 1565:2 1567:1 1568:1 1571:3 1573:1 1574:1 1576:1 1578:1 1580:1 1585:1 1590:1 1593:1 1603:1 1604:1 1605:1 1615:2 1618:5 1620:1 1621:1 1624:2 1625:2 1626:1 1631:1 1633:2 1635:1 1637:1 1641:1 1645:2 1647:1 1649:1 1651:2 1652:3 1653:1 1661:2 1669:1 1671:1 1673:1 1675:1 1683:1 1684:1 1687:2 1691:1 1693:1 1694:1 1696:1 1697:3 1698:1 1699:1 1701:1 1703:2 1704:1 1705:2 1706:1 1708:1 1710:3 1713:1 1718:1 1719:2 1720:4 1725:1 1727:2 1729:1 1730:1 1731:1 1735:1 1736:2 1744:1 1746:1 1750:1 1752:1 1753:1 1757:1 1759:1 1762:1 1765:1 1767:1 1768:1 1773:1 1775:1 1777:1 1778:1 1781:1 1783:1 1784:4 1785:1 1793:1 1798:1 1802:1 1807:1 1808:1 1809:1 1811:1 1812:2 1813:4 1814:2 1817:2 1820:1 1821:1 1823:1 1826:1 1828:1 1829:1 1830:1 1833:1 1839:1 1841:1 1842:1 1845:1 1846:1 1847:1 1849:1 1850:1 1856:3 1857:3 1858:2 1863:2 1866:1 1870:1 1872:1 1873:1 1876:1 1878:2 1880:1 1881:2 1882:1 1883:1 1884:1 1886:2 1889:1 1893:1 1896:1 1900:1 1902:2 1905:1 1906:1 1908:6 1909:2 1910:1 1912:1 1918:1 1919:1 1920:1 1922:1 1926:3 1928:1 1929:1 1930:1 1933:1 1934:1 1936:1 1939:1 1940:1 1941:1 1942:3 1948:1 1949:1 1951:1}\n'
tp2
a(S't # 1 * 558\n'
S'v 0 4\nv 1 4\n'
S'v 1 4\n'
S'e 0 1 0\n'
S'e 0 1 0\n'
S' {3:2 4:6 6:2 7:2 11:4 12:2 15:2 16:4 17:6 18:4 20:6 21:12 22:4 24:10 25:2 32:2 33:2 34:4 37:2 39:2 43:6 44:2 48:4 51:6 54:6 55:8 56:2 57:2 58:2 61:8 62:2 63:10 67:6 69:2 70:2 72:2 73:4 74:2 79:2 80:4 81:4 83:2 84:10 86:2 90:8 99:2 100:8 108:6 112:6 115:2 116:4 117:6 120:6 121:2 123:2 124:2 126:2 127:2 128:10 130:10 135:2 144:2 147:2 149:4 152:4 154:16 155:2 159:2 161:6 162:2 163:2 164:2 170:2 171:4 175:2 178:2 179:6 181:4 182:2 183:4 186:2 188:2 189:2 195:6 197:4 199:2 203:2 208:2 209:2 213:4 214:8 222:6 223:2 225:2 228:6 229:2 233:8 235:4 239:6 241:2 243:4 244:2 245:2 246:14 247:6 248:4 249:2 251:6 253:6 256:10 257:2 261:2 264:6 265:2 268:2 271:2 273:2 275:2 277:2 281:2 283:4 285:6 287:2 288:16 289:6 291:12 293:14 297:6 299:2 300:6 306:6 307:4 308:4 312:2 314:10 315:2 316:4 317:2 319:2 320:6 334:4 337:2 338:2 339:2 340:2 341:2 342:2 345:2 349:6 350:4 352:22 353:2 356:4 362:2 364:2 365:4 366:4 367:2 369:16 374:2 375:2 378:6 382:2 394:4 397:2 398:4 401:4 402:4 403:2 407:2 408:18 410:4 414:2 417:2 419:8 420:2 424:6 426:10 427:6 435:6 437:4 438:2 443:14 446:2 448:4 449:4 450:2 452:2 453:12 454:2 456:4 458:8 464:2 466:12 468:6 469:20 470:16 476:2 478:10 483:20 486:2 487:2 489:6 490:2 492:2 493:2 495:4 497:4 498:4 503:2 504:2 506:6 507:10 508:4 512:6 516:4 519:2 521:2 524:4 525:2 526:2 528:2 529:4 530:2 532:2 533:18 534:2 535:2 539:2 541:4 543:8 545:2 548:12 549:2 552:6 556:2 558:2 560:4 562:6 564:2 567:8 568:2 570:2 572:4 574:2 576:2 579:4 581:2 582:4 586:6 588:8 589:6 590:8 597:4 598:2 599:4 606:4 607:2 608:10 609:4 612:2 613:2 617:2 619:4 622:2 624:2 628:26 629:2 633:2 636:4 637:2 639:2 640:4 642:10 646:2 647:2 648:2 650:2 651:10 652:2 655:16 656:16 659:2 660:6 662:2 670:2 672:2 680:10 685:2 690:2 692:2 693:6 695:6 697:2 698:22 703:2 704:2 706:4 711:6 713:4 714:4 717:6 720:4 723:2 725:8 727:8 734:2 737:8 739:2 742:6 743:4 744:4 745:4 746:4 749:4 751:32 754:16 755:2 758:4 759:2 760:4 761:2 762:4 763:2 764:8 771:2 772:2 776:8 777:6 779:2 780:2 785:2 792:2 794:6 797:2 798:10 799:2 801:4 803:2 805:4 807:2 809:2 810:8 813:4 814:2 815:2 816:10 820:2 821:4 822:6 823:4 825:6 834:4 838:4 839:4 840:4 841:4 843:6 846:4 849:14 857:12 858:6 862:8 863:2 867:6 868:8 871:4 873:2 876:2 877:4 878:2 880:6 883:6 886:2 888:16 890:2 891:2 892:10 893:4 896:2 897:6 898:2 899:4 902:4 903:6 907:8 910:2 911:2 913:4 914:2 916:6 919:2 923:4 924:20 932:8 933:2 935:2 943:2 944:2 946:2 948:4 949:2 950:10 952:10 960:2 961:2 963:2 964:2 965:2 970:2 974:2 979:2 981:8 982:2 983:2 985:4 987:16 990:2 991:2 992:2 994:4 995:2 997:4 1001:4 1003:10 1007:10 1009:4 1012:6 1014:2 1026:2 1028:4 1033:2 1044:8 1054:2 1056:2 1058:2 1065:8 1068:2 1072:2 1087:2 1088:4 1090:6 1092:2 1094:2 1097:2 1115:2 1122:4 1128:4 1136:2 1141:2 1152:2 1153:6 1156:6 1157:2 1165:2 1166:2 1180:20 1183:2 1184:2 1196:2 1200:2 1205:2 1228:12 1230:2 1235:2 1245:2 1246:2 1248:2 1254:2 1256:2 1271:2 1298:6 1301:4 1313:2 1346:2 1352:4 1357:2 1363:2 1364:2 1369:2 1371:2 1377:2 1404:6 1409:2 1410:2 1413:2 1419:2 1436:2 1438:2 1442:2 1446:4 1452:2 1460:2 1462:2 1476:6 1489:4 1496:2 1500:2 1505:6 1511:2 1514:4 1517:2 1530:6 1531:8 1532:4 1541:4 1553:2 1562:2 1569:4 1580:2 1600:4 1602:2 1618:6 1623:2 1624:2 1633:2 1645:2 1647:2 1658:2 1661:2 1664:2 1675:4 1682:4 1687:2 1700:2 1703:2 1705:2 1712:4 1719:4 1723:4 1727:2 1730:4 1758:2 1765:2 1767:4 1776:4 1789:2 1794:4 1796:8 1806:2 1812:2 1813:2 1819:2 1820:2 1846:6 1856:4 1857:2 1858:2 1863:2 1876:4 1878:4 1902:2 1908:10 1910:2 1926:6 1931:2 1941:2 1947:2}\n'
tp3
a(S't # 2 * 540\n'
S'v 0 11\nv 1 11\n'
S'v 1 11\n'
S'e 0 1 0\n'
S'e 0 1 0\n'
S' {5:2 6:4 7:2 9:4 10:4 12:2 13:2 25:2 28:2 34:2 36:4 37:2 38:2 39:2 40:16 42:2 44:10 48:2 52:10 53:4 58:2 60:2 63:2 66:2 69:6 73:6 74:2 75:2 78:6 79:4 83:14 84:8 86:4 89:2 93:4 95:2 96:2 97:4 98:6 103:2 104:8 105:2 106:4 107:4 110:8 111:2 115:2 117:4 119:2 121:2 125:6 126:2 127:8 128:4 132:6 138:4 140:4 143:2 144:2 146:4 147:26 153:2 156:6 159:2 160:2 162:2 164:4 165:8 166:2 168:4 172:2 174:4 176:4 178:2 181:4 188:4 190:6 191:6 194:4 200:6 202:4 204:10 205:6 206:6 207:2 208:8 209:2 211:10 212:4 213:2 220:6 221:2 223:4 226:10 227:4 228:2 229:2 233:4 235:2 240:14 243:10 244:2 245:2 246:2 247:12 249:2 250:2 253:2 259:6 265:2 266:6 268:4 271:2 272:4 277:2 281:2 283:2 285:10 288:14 290:14 294:6 295:8 297:2 299:2 301:2 304:2 307:2 308:12 311:4 312:2 313:4 316:10 317:2 319:4 323:10 324:2 329:4 330:2 331:2 332:6 333:6 334:2 338:20 339:2 343:2 344:2 346:2 350:2 352:8 356:4 357:4 362:4 368:8 373:2 374:4 376:8 380:6 381:6 384:4 385:24 389:2 392:4 393:2 397:2 399:2 404:6 406:2 407:2 410:8 413:18 415:6 420:2 422:2 423:4 424:2 427:10 429:14 431:4 438:4 439:10 442:2 447:6 450:4 453:2 454:10 455:2 465:2 471:10 472:12 473:2 477:2 482:8 486:4 487:12 490:8 491:2 492:4 496:12 499:2 503:2 505:6 508:2 510:2 512:2 513:6 514:22 515:6 518:8 521:2 525:2 527:2 528:18 529:16 530:4 535:2 541:8 542:6 545:2 546:2 550:2 552:4 553:8 556:4 557:4 560:4 561:4 563:2 565:10 568:2 570:2 574:2 583:2 584:4 588:8 592:2 593:2 597:2 599:4 605:2 609:2 612:8 614:2 621:4 622:6 623:4 628:8 629:2 630:6 638:2 639:2 640:4 642:2 644:2 645:2 646:2 649:2 651:12 652:2 654:4 657:2 658:10 659:6 660:6 661:4 662:2 665:2 666:2 669:2 671:2 681:4 683:24 684:6 685:2 686:4 687:2 688:8 690:6 691:4 692:2 693:2 694:16 696:6 699:20 700:4 703:6 704:4 705:4 708:2 709:2 710:12 716:12 720:2 721:2 723:4 724:4 725:4 726:2 727:2 728:10 730:6 731:10 732:4 736:2 741:12 745:4 748:2 756:6 757:4 760:2 761:6 762:2 766:4 769:2 773:4 774:2 780:6 788:2 789:2 796:14 797:2 798:16 801:8 803:2 805:12 807:2 808:4 810:12 812:2 814:2 815:2 817:2 823:2 824:18 825:2 827:2 828:8 829:2 830:6 832:4 833:2 835:4 841:4 843:2 844:2 848:4 850:8 851:2 852:6 853:12 854:4 863:2 865:2 866:4 870:12 871:6 872:2 875:2 880:4 887:4 892:8 894:6 896:2 899:2 901:2 904:8 906:8 911:6 912:10 915:6 917:2 919:2 920:2 922:4 923:4 924:8 925:2 927:2 928:16 929:4 931:6 933:2 936:12 940:6 942:2 943:6 951:6 953:4 955:8 960:2 961:2 963:2 964:2 973:2 974:2 977:12 980:4 981:4 982:2 984:8 985:4 986:2 988:16 990:2 993:20 994:4 995:2 996:12 1000:2 1004:6 1005:2 1011:2 1013:2 1019:2 1029:2 1039:2 1044:10 1051:2 1058:2 1061:2 1065:2 1081:2 1090:2 1092:2 1093:2 1094:2 1105:2 1125:2 1136:2 1145:2 1150:2 1152:2 1157:2 1160:2 1161:2 1165:2 1166:2 1170:2 1171:4 1174:2 1183:2 1188:2 1200:6 1209:2 1214:2 1223:2 1233:2 1237:6 1239:2 1242:2 1286:2 1291:2 1301:2 1303:2 1304:4 1317:2 1344:2 1371:4 1375:2 1379:2 1384:2 1389:2 1395:2 1400:2 1404:2 1405:2 1413:6 1438:4 1441:2 1452:2 1455:2 1460:2 1476:2 1481:4 1496:2 1507:2 1509:2 1517:2 1520:2 1529:2 1530:6 1531:2 1532:4 1543:30 1571:2 1581:2 1582:2 1592:2 1609:4 1618:2 1619:2 1621:2 1623:2 1625:2 1643:2 1647:2 1651:2 1652:4 1661:2 1679:2 1687:2 1689:2 1690:2 1697:6 1701:2 1704:2 1709:2 1710:2 1714:2 1719:4 1720:2 1726:2 1736:2 1750:2 1757:2 1767:2 1781:2 1784:4 1813:2 1820:2 1833:2 1846:2 1853:2 1856:2 1858:2 1863:2 1877:2 1878:2 1887:2 1889:2 1901:2 1902:2 1903:2 1908:10 1911:2 1918:2 1922:2 1931:2 1941:4 1942:2 1953:2}\n'
tp4
a(S't # 3 * 381\n'
S'v 0 5\nv 1 12\n'
S'v 1 12\n'
S'e 0 1 0\n'
S'e 0 1 0\n'
S' {0:1 1:1 2:2 20:4 26:1 45:3 59:1 64:1 87:1 91:1 96:2 101:1 102:2 114:3 123:1 129:1 131:1 133:1 137:1 139:3 155:1 162:3 185:1 186:1 187:2 212:2 221:1 242:2 246:1 258:1 267:2 270:1 279:2 284:2 305:2 310:2 318:1 321:4 322:4 327:1 335:1 337:1 363:3 365:1 370:1 371:2 377:1 379:3 387:3 388:7 390:10 391:2 434:1 436:1 440:1 457:1 467:2 474:3 475:3 479:2 481:5 488:1 523:1 540:3 563:1 566:1 569:1 575:1 585:1 591:2 594:1 595:1 604:8 611:1 618:2 667:1 677:1 682:3 707:2 715:1 722:1 729:2 735:8 740:2 743:1 744:1 747:2 750:1 767:1 770:4 771:1 775:1 778:2 781:1 784:5 786:2 790:2 799:1 804:2 806:3 826:5 829:2 836:10 855:1 865:2 873:2 889:1 895:1 900:4 909:1 941:1 946:4 957:3 958:2 959:2 962:3 965:1 969:4 975:1 978:1 981:2 986:1 992:4 998:1 1002:2 1010:1 1022:1 1028:1 1030:2 1032:2 1039:1 1043:1 1052:1 1056:1 1068:2 1070:1 1072:3 1074:1 1077:1 1079:1 1088:1 1089:1 1093:1 1095:2 1096:1 1102:2 1105:1 1106:1 1107:3 1112:1 1123:1 1124:1 1125:1 1127:1 1132:1 1133:1 1137:1 1143:1 1144:1 1153:1 1159:1 1165:1 1174:1 1175:1 1183:2 1188:1 1190:1 1191:1 1192:1 1197:1 1199:1 1200:1 1205:1 1208:1 1210:1 1214:3 1219:1 1224:1 1235:1 1238:1 1251:1 1252:3 1258:1 1269:1 1271:1 1280:2 1292:2 1302:1 1303:1 1305:3 1312:1 1313:1 1318:1 1320:1 1325:2 1326:1 1328:1 1330:1 1331:1 1337:1 1340:3 1344:2 1345:3 1347:1 1349:1 1352:2 1357:1 1362:1 1363:2 1364:3 1365:1 1366:1 1370:1 1371:1 1386:1 1388:1 1392:1 1394:1 1401:1 1404:3 1405:1 1409:1 1410:2 1413:1 1415:1 1418:1 1430:2 1431:1 1432:1 1436:1 1443:1 1448:1 1452:1 1453:1 1454:1 1455:2 1457:1 1458:1 1463:1 1464:2 1465:1 1470:2 1472:1 1476:1 1478:1 1482:2 1489:1 1490:1 1493:1 1498:1 1507:1 1508:1 1510:1 1511:1 1516:4 1518:2 1523:1 1525:2 1526:1 1533:1 1534:1 1538:1 1541:1 1544:1 1546:1 1550:1 1552:1 1555:1 1557:2 1558:1 1565:1 1571:1 1575:2 1579:1 1581:1 1582:1 1583:1 1586:1 1587:1 1591:1 1594:1 1596:1 1597:5 1598:1 1599:1 1600:1 1602:1 1606:1 1609:1 1612:1 1613:1 1622:1 1633:1 1634:3 1638:1 1646:1 1647:1 1648:1 1656:3 1657:2 1663:1 1664:3 1674:1 1676:4 1677:1 1678:2 1683:6 1689:1 1690:2 1692:1 1695:1 1700:2 1702:1 1705:1 1707:1 1708:2 1711:1 1714:1 1722:3 1723:2 1726:1 1728:1 1730:1 1732:1 1733:2 1734:1 1741:1 1747:1 1749:1 1751:5 1762:1 1763:2 1766:1 1767:1 1769:1 1780:3 1782:2 1783:1 1786:2 1787:1 1788:1 1797:1 1799:1 1803:3 1805:1 1808:1 1810:1 1811:1 1812:1 1819:1 1821:1 1822:1 1823:1 1835:1 1836:1 1838:1 1841:1 1844:1 1846:3 1847:1 1857:1 1860:1 1861:1 1862:1 1869:2 1877:1 1883:1 1885:1 1886:1 1887:1 1890:1 1892:1 1897:1 1898:1 1901:2 1912:3 1913:1 1918:1 1924:1 1943:1 1945:1}\n'
tp5
a(S't # 4 * 307\n'
S'v 0 5\nv 1 12\n'
S'v 1 12\n'
S'e 0 1 1\n'
S'e 0 1 1\n'
S' {1:2 2:1 14:1 20:3 23:1 45:2 59:1 64:1 77:1 91:1 96:1 101:2 102:2 129:1 131:1 137:1 139:2 148:1 162:4 185:1 186:1 187:1 212:3 215:1 221:1 242:2 246:1 258:2 267:3 270:1 279:2 284:2 305:2 310:2 318:2 321:1 322:2 327:2 335:2 337:1 363:2 371:1 377:2 379:3 388:5 390:5 391:2 412:1 421:1 432:1 434:1 440:2 457:2 467:1 474:1 475:6 479:3 481:2 523:2 540:3 555:1 566:1 569:2 575:1 585:2 591:1 594:1 600:1 601:1 604:7 611:1 667:1 676:1 707:3 722:2 729:2 735:8 740:2 743:5 744:1 747:1 767:2 770:4 775:1 778:2 784:8 786:2 790:2 804:3 806:3 826:7 829:4 836:8 837:1 855:1 861:1 889:1 895:1 900:3 908:1 909:1 941:2 946:9 957:3 962:4 965:2 969:3 978:2 981:1 992:5 998:2 1002:2 1010:2 1025:1 1027:2 1028:1 1030:3 1032:3 1033:1 1044:1 1056:1 1065:1 1071:1 1081:1 1099:1 1106:1 1108:1 1114:1 1123:2 1124:1 1125:1 1131:1 1137:2 1148:1 1159:1 1160:1 1172:1 1183:1 1186:1 1196:1 1209:1 1221:1 1223:1 1224:1 1229:1 1235:3 1236:1 1241:1 1245:1 1248:1 1250:1 1251:5 1255:1 1258:1 1262:2 1264:1 1271:1 1280:1 1291:1 1292:3 1298:1 1301:1 1302:1 1313:1 1320:1 1325:1 1333:1 1336:1 1339:2 1342:1 1345:2 1352:1 1357:2 1359:1 1362:1 1364:1 1365:2 1366:1 1368:1 1377:1 1379:1 1381:2 1382:1 1388:3 1392:1 1400:1 1401:3 1407:1 1410:2 1414:1 1417:1 1418:2 1424:1 1430:1 1437:1 1440:1 1446:2 1448:1 1462:1 1464:1 1465:2 1467:2 1469:1 1470:3 1473:1 1475:1 1476:1 1478:1 1482:3 1485:1 1501:1 1502:1 1515:1 1516:4 1518:2 1527:1 1528:1 1529:1 1534:3 1536:1 1538:2 1541:1 1547:1 1556:1 1557:1 1562:1 1575:1 1582:3 1584:1 1587:1 1588:1 1589:1 1591:4 1592:1 1597:2 1598:2 1617:1 1624:1 1636:1 1638:2 1639:1 1640:1 1641:1 1646:1 1654:1 1656:4 1657:1 1659:1 1664:2 1667:1 1676:1 1678:2 1683:1 1689:1 1690:1 1693:1 1697:1 1702:3 1707:1 1715:1 1722:3 1723:3 1726:1 1728:2 1730:1 1734:1 1737:1 1742:3 1751:4 1758:1 1769:1 1774:1 1777:1 1780:3 1782:1 1784:1 1788:1 1791:2 1803:3 1818:1 1819:1 1821:1 1823:2 1824:3 1831:1 1843:1 1844:2 1847:1 1862:1 1866:1 1869:3 1875:1 1877:2 1886:1 1892:3 1898:1 1901:4 1907:1 1908:1 1910:1 1912:1 1915:1 1917:1 1925:1 1927:1 1942:1 1945:1}\n'
tp6
a(S't # 5 * 449\n'
S'v 0 11\nv 1 11\n'
S'v 1 11\n'
S'e 0 1 1\n'
S'e 0 1 1\n'
S' {4:2 6:6 9:2 10:2 12:4 13:10 36:2 37:2 40:16 41:2 44:8 49:2 52:8 53:4 57:2 65:2 66:2 69:8 71:2 73:4 78:2 79:2 81:2 83:14 84:6 88:2 93:2 97:2 98:6 104:6 106:2 107:2 110:6 111:2 117:2 119:2 125:4 127:6 128:2 132:6 136:2 138:2 140:2 141:2 146:2 147:24 156:4 157:2 159:4 163:2 164:2 165:14 168:2 171:2 172:4 174:2 176:2 181:4 188:2 190:4 191:4 194:2 200:4 202:2 204:8 205:6 206:4 207:4 208:18 211:10 212:2 217:2 220:6 223:2 226:8 227:4 233:2 240:16 243:8 247:12 252:6 259:4 260:2 263:2 266:4 268:2 272:2 274:2 277:4 278:2 280:2 285:12 287:2 288:16 290:14 294:4 295:6 297:4 304:2 308:12 311:2 313:2 316:10 319:2 323:10 325:2 326:8 329:4 332:4 333:4 334:2 338:20 343:2 345:2 347:2 350:4 351:2 352:10 356:2 357:2 358:2 362:8 366:2 368:8 374:2 376:6 380:4 381:4 383:2 384:2 385:36 392:2 393:2 394:2 404:4 405:6 410:10 413:16 415:4 423:2 427:10 429:12 430:2 431:2 437:6 438:2 439:8 442:8 447:4 450:2 454:10 455:2 460:2 465:2 471:8 472:10 480:2 482:6 486:2 487:14 490:6 491:2 492:6 495:2 496:16 500:2 504:2 505:4 508:2 510:2 513:4 514:20 515:6 517:2 518:6 520:4 528:24 529:14 530:4 541:6 542:4 546:2 548:2 551:2 552:2 553:6 556:2 557:2 558:2 561:2 563:2 565:8 574:2 584:2 588:6 594:2 599:2 612:8 614:2 621:2 622:4 623:2 626:2 628:6 630:6 643:2 651:12 652:4 654:4 658:8 659:6 660:4 661:2 668:2 671:2 672:2 681:2 682:2 683:28 684:4 686:2 688:6 689:2 690:8 691:2 694:22 696:4 698:2 699:18 700:2 701:2 702:2 703:6 704:2 705:2 708:2 710:10 711:4 712:2 716:10 718:2 719:6 720:2 721:2 723:2 724:2 725:2 728:8 730:6 731:10 732:2 734:2 741:14 745:2 755:2 756:6 757:4 761:4 765:2 766:2 773:2 777:4 780:4 789:2 796:12 797:2 798:18 801:12 803:4 805:14 808:6 809:2 810:12 811:2 812:2 813:2 817:2 819:2 820:2 824:20 828:6 830:4 832:4 835:2 838:2 841:4 844:2 848:2 850:6 852:4 853:10 854:4 859:2 866:2 870:10 871:4 880:4 887:2 892:8 894:4 904:6 906:6 911:4 912:8 915:4 918:2 919:4 922:2 923:2 924:2 927:2 928:18 929:2 930:4 931:6 936:14 940:4 942:2 943:4 945:2 948:2 951:4 953:2 955:8 964:2 966:2 977:12 980:8 981:6 984:6 985:4 988:14 991:2 993:24 994:2 996:10 997:4 1004:4 1009:2 1011:2 1017:4 1026:2 1029:2 1034:2 1035:2 1039:2 1044:6 1052:2 1054:2 1056:2 1058:2 1065:2 1075:2 1090:2 1099:2 1111:2 1150:8 1155:2 1158:2 1171:2 1184:2 1195:2 1200:4 1221:2 1222:2 1223:2 1230:2 1234:2 1236:6 1237:6 1242:2 1250:2 1255:2 1261:2 1282:2 1301:6 1302:2 1304:2 1363:2 1371:2 1382:2 1395:2 1413:6 1426:2 1431:2 1435:2 1438:2 1442:2 1446:2 1455:2 1460:2 1462:2 1481:2 1486:2 1501:2 1511:2 1529:2 1530:4 1532:2 1538:2 1539:2 1541:4 1543:36 1559:2 1571:2 1609:2 1615:4 1618:4 1623:2 1633:2 1643:2 1652:4 1675:2 1687:2 1689:2 1691:2 1697:2 1705:2 1710:2 1719:6 1720:2 1727:2 1729:6 1750:2 1756:2 1757:2 1777:2 1784:4 1811:2 1817:2 1818:2 1840:2 1853:6 1856:2 1857:2 1858:2 1876:2 1883:2 1886:2 1901:2 1902:2 1903:2 1908:8 1909:2 1912:2 1926:4 1941:2 1942:2 1947:2}\n'
tp7
a(S't # 6 * 709\n'
S'v 0 4\nv 1 11\n'
S'v 1 11\n'
S'e 0 1 1\n'
S'e 0 1 1\n'
S' {3:1 4:5 5:1 6:5 7:2 9:1 11:1 12:4 13:2 14:1 15:3 18:1 20:2 25:2 29:1 32:1 33:1 34:4 36:2 37:4 39:2 44:4 48:2 53:2 56:2 57:1 58:2 60:1 61:2 62:1 63:4 69:5 70:1 72:1 73:8 74:3 75:2 77:2 78:3 79:2 80:2 81:2 83:4 84:9 86:4 93:2 96:1 98:1 103:2 105:2 106:1 107:1 108:1 109:1 111:3 115:3 116:1 117:3 119:1 121:2 124:2 126:2 127:6 128:8 132:3 133:1 135:1 138:1 140:1 142:1 143:1 144:2 146:1 147:7 152:1 153:1 155:2 156:1 159:4 163:1 164:2 165:2 168:2 170:1 171:2 172:2 175:1 176:1 178:3 179:1 181:3 182:1 188:5 189:1 190:1 194:1 199:2 203:1 207:2 208:10 209:2 212:2 213:3 214:5 220:3 221:1 222:1 223:2 226:2 227:1 228:3 229:3 233:4 235:2 240:3 243:4 244:2 245:2 246:6 247:9 249:2 250:1 253:2 256:5 257:1 261:1 264:2 265:2 268:3 271:2 272:1 273:1 275:1 277:3 281:3 283:2 285:6 287:1 288:11 297:4 299:2 300:3 301:1 307:3 308:4 311:2 312:3 315:1 316:8 317:2 319:3 329:2 331:2 332:1 333:2 334:6 338:4 339:2 340:2 341:2 342:1 343:1 344:1 345:5 350:5 352:11 353:1 356:5 357:1 362:4 366:2 373:2 374:5 378:1 382:2 385:5 388:2 389:2 392:2 394:3 397:2 402:2 403:1 407:3 410:5 420:2 424:2 427:7 431:1 432:1 437:4 438:2 443:3 446:1 448:2 449:1 450:3 451:1 452:1 453:2 454:7 455:1 456:1 464:2 476:1 477:2 483:3 486:5 487:12 489:3 490:6 491:1 492:5 495:1 496:1 497:1 498:1 503:2 504:1 507:1 508:4 510:1 512:3 514:4 515:1 521:2 524:2 525:3 526:1 527:2 528:8 529:5 530:3 532:1 534:1 535:3 541:5 543:2 545:3 546:1 548:3 549:1 552:4 556:3 557:1 558:1 560:6 561:1 564:2 568:3 570:2 574:3 576:1 581:3 582:1 584:2 586:3 588:10 589:1 592:2 597:1 599:6 600:1 601:1 602:1 607:1 609:3 612:2 613:1 614:1 617:1 619:1 621:2 622:4 628:12 629:3 630:1 636:1 638:1 639:2 640:5 642:2 644:2 646:2 648:2 649:2 650:1 651:6 652:3 654:1 656:2 659:3 660:4 661:3 662:3 669:1 670:1 672:4 676:1 677:1 681:1 685:2 686:1 687:2 690:5 691:1 692:2 693:3 694:3 695:1 698:4 700:1 703:4 704:3 705:2 706:2 708:1 709:2 711:2 713:1 714:1 720:4 721:2 723:2 725:6 727:3 728:2 730:4 734:1 739:1 741:1 743:3 744:1 745:3 755:2 756:1 757:1 758:1 759:1 760:3 761:1 762:3 772:1 773:2 774:1 777:4 779:1 780:4 788:2 789:2 791:1 792:2 796:5 797:4 798:14 799:1 801:4 803:4 805:8 807:2 808:1 809:3 810:12 812:2 813:1 814:2 815:2 817:1 818:1 820:3 821:2 823:2 824:2 825:3 827:2 832:1 833:1 835:1 838:5 840:1 841:4 843:2 844:2 846:1 851:1 854:4 858:4 863:2 866:1 867:1 868:2 871:6 872:2 873:1 875:2 877:3 880:5 883:2 887:1 890:1 891:1 892:9 896:2 899:5 901:1 902:1 906:2 907:3 910:1 911:5 913:2 914:1 917:1 919:4 920:2 922:1 923:7 924:6 925:2 927:2 933:3 935:1 936:4 942:2 943:2 944:2 948:1 951:2 960:3 961:2 963:2 964:3 970:1 973:1 974:2 977:2 980:1 981:14 982:2 983:2 985:3 990:2 991:1 993:1 994:2 995:2 997:3 1001:1 1009:3 1011:1 1013:1 1019:3 1025:2 1026:1 1027:2 1029:1 1032:1 1033:1 1034:1 1035:2 1036:1 1037:1 1039:1 1041:1 1043:3 1044:6 1048:3 1050:1 1051:2 1052:2 1056:2 1058:4 1059:1 1063:1 1065:2 1067:1 1069:1 1072:1 1073:1 1078:1 1080:1 1081:1 1082:1 1083:1 1085:1 1089:1 1090:4 1092:2 1093:1 1094:2 1100:1 1103:1 1113:1 1121:1 1131:1 1141:1 1145:1 1150:1 1152:2 1153:2 1157:1 1158:3 1160:1 1161:1 1165:2 1166:3 1170:2 1171:1 1174:1 1183:1 1184:2 1188:1 1200:3 1207:1 1209:1 1211:1 1214:2 1221:2 1223:2 1227:1 1230:1 1231:1 1232:1 1233:2 1239:1 1242:2 1244:1 1246:1 1248:1 1263:1 1277:1 1283:1 1285:1 1286:1 1291:1 1295:1 1301:6 1304:2 1312:1 1313:2 1317:1 1320:1 1321:1 1327:1 1332:1 1333:1 1344:3 1346:1 1352:1 1357:1 1361:1 1364:1 1369:1 1371:2 1375:2 1379:1 1384:2 1395:2 1399:1 1400:1 1404:1 1406:1 1410:1 1413:3 1416:1 1420:1 1429:1 1438:2 1439:1 1441:1 1442:1 1443:1 1446:1 1447:1 1451:1 1452:2 1455:1 1458:1 1459:1 1460:1 1462:1 1473:2 1476:1 1479:1 1480:1 1496:1 1500:2 1504:1 1507:1 1509:2 1511:2 1514:2 1517:2 1520:1 1529:2 1530:5 1531:6 1532:2 1533:1 1539:1 1540:1 1541:4 1547:2 1551:1 1553:1 1561:1 1562:1 1569:1 1570:1 1571:2 1580:1 1582:1 1591:1 1592:2 1594:1 1595:1 1614:1 1618:5 1621:1 1623:2 1624:1 1625:2 1627:1 1628:1 1630:1 1645:2 1647:2 1651:2 1652:1 1655:1 1661:2 1672:1 1675:1 1687:5 1688:1 1693:2 1695:1 1697:5 1701:1 1703:1 1704:1 1705:2 1707:1 1710:1 1712:1 1716:1 1719:3 1720:1 1721:1 1727:3 1730:2 1731:1 1736:2 1750:1 1755:1 1758:1 1765:2 1767:2 1768:1 1779:1 1781:1 1784:1 1792:1 1795:1 1806:1 1808:1 1811:1 1812:2 1813:5 1817:2 1820:2 1823:1 1825:1 1831:1 1832:1 1833:1 1840:2 1846:2 1848:1 1852:1 1856:2 1857:1 1858:3 1863:1 1868:1 1871:1 1876:3 1878:2 1879:2 1883:2 1886:1 1891:1 1894:1 1900:3 1901:1 1902:2 1903:1 1908:9 1910:2 1914:1 1918:1 1922:1 1926:2 1931:1 1941:2 1942:1 1946:1 1947:1 1950:1}\n'
tp8
a(S't # 7 * 322\n'
S'v 0 4\nv 1 5\n'
S'v 1 5\n'
S'e 0 1 0\n'
S'e 0 1 0\n'
S' {14:1 15:1 18:2 20:4 25:2 26:1 45:1 64:1 77:2 78:2 87:1 96:1 100:5 101:1 111:2 123:1 126:1 129:1 133:1 149:1 153:2 164:2 186:1 187:1 193:1 215:2 218:2 219:1 241:1 246:2 257:1 262:4 270:1 276:1 277:1 282:1 296:2 300:2 314:2 315:1 318:2 324:1 334:1 337:3 350:2 361:2 365:1 374:2 378:1 388:1 390:1 394:1 412:1 417:1 421:1 425:1 432:1 452:2 458:2 459:2 466:4 467:1 468:1 470:2 475:1 488:1 493:1 516:1 525:1 550:1 589:1 595:1 600:1 601:2 602:1 606:1 609:2 610:1 611:3 632:1 636:1 639:1 647:1 667:2 669:1 673:1 674:1 676:1 677:1 682:1 691:1 727:1 728:2 737:1 743:2 746:3 750:1 758:3 761:1 763:1 771:1 775:1 776:1 777:2 782:1 785:3 791:1 834:2 837:1 839:3 872:1 875:1 883:1 887:2 890:1 892:2 893:9 901:1 938:1 946:3 951:1 961:1 965:1 981:2 986:1 999:1 1006:1 1022:1 1023:1 1024:1 1025:1 1026:1 1027:1 1028:1 1029:2 1030:2 1032:1 1039:1 1043:2 1044:1 1051:1 1052:1 1065:1 1072:2 1073:1 1074:1 1078:1 1080:1 1087:1 1090:1 1093:1 1097:1 1100:1 1102:1 1103:1 1107:1 1114:1 1115:1 1125:1 1128:2 1136:1 1137:1 1141:1 1150:2 1155:2 1156:4 1159:1 1166:2 1168:1 1181:1 1182:1 1183:1 1188:1 1199:1 1206:1 1209:1 1214:1 1218:1 1221:1 1224:1 1233:1 1235:1 1236:1 1237:1 1239:1 1248:1 1251:1 1258:1 1264:2 1269:3 1271:1 1278:1 1281:1 1286:1 1298:4 1301:1 1302:1 1305:1 1307:1 1313:2 1320:1 1321:1 1325:2 1326:1 1331:1 1333:2 1344:2 1357:1 1364:3 1366:2 1368:1 1371:1 1375:1 1377:2 1382:2 1386:1 1388:1 1392:1 1395:2 1409:1 1410:1 1411:1 1418:4 1423:1 1432:1 1436:2 1440:1 1442:1 1443:1 1446:1 1449:1 1451:1 1458:1 1465:1 1467:1 1473:1 1476:1 1478:1 1486:1 1489:1 1491:1 1503:1 1505:2 1506:1 1523:1 1529:2 1530:2 1538:1 1541:1 1547:1 1560:1 1575:3 1581:1 1582:2 1587:1 1591:1 1592:1 1602:1 1609:1 1613:1 1624:2 1633:1 1638:1 1651:1 1657:1 1659:1 1661:1 1664:1 1679:1 1683:2 1690:2 1691:1 1693:1 1695:3 1697:3 1700:3 1705:1 1708:1 1720:3 1723:2 1725:1 1726:1 1730:1 1736:1 1758:1 1767:1 1776:3 1781:2 1782:1 1783:2 1784:1 1789:1 1791:2 1794:3 1802:1 1808:2 1811:1 1812:3 1817:1 1819:1 1820:1 1823:1 1831:1 1833:1 1840:1 1841:3 1846:1 1847:1 1857:1 1862:1 1875:1 1886:2 1892:1 1897:1 1898:3 1900:2 1901:1 1910:1 1922:1 1927:1 1940:1 1941:1}\n'
tp9
a(S't # 8 * 177\n'
S'v 0 12\nv 1 12\n'
S'v 1 12\n'
S'e 0 1 0\n'
S'e 0 1 0\n'
S' {1:2 8:12 20:6 23:2 28:4 44:2 45:2 64:4 85:4 91:2 94:12 102:4 109:2 123:4 137:6 139:2 148:2 151:8 153:2 162:2 164:2 180:4 216:6 221:6 236:8 242:2 255:2 258:2 267:2 270:2 279:4 284:16 292:2 324:4 327:2 332:4 335:2 337:2 339:2 348:6 367:2 377:4 379:10 388:8 390:4 399:4 400:8 417:4 421:2 440:2 457:2 473:2 474:2 475:4 479:2 481:4 502:6 511:8 540:2 544:6 555:2 563:2 569:4 578:12 585:4 604:4 611:2 615:2 625:6 637:2 660:2 663:6 666:8 667:2 671:2 694:2 698:2 707:2 722:2 726:2 729:2 735:8 761:2 763:2 766:2 767:2 768:2 770:8 775:2 778:2 784:6 804:4 806:2 826:2 829:6 836:6 861:2 869:16 889:2 900:10 908:2 909:2 910:2 946:2 957:6 962:2 965:4 967:8 969:2 972:6 978:2 992:4 998:2 1005:2 1010:2 1028:2 1030:4 1056:4 1066:2 1123:2 1124:4 1125:2 1137:2 1171:2 1186:2 1193:4 1236:4 1237:2 1251:4 1253:2 1262:2 1271:2 1292:2 1320:4 1336:2 1345:2 1357:2 1365:2 1366:4 1368:2 1388:2 1392:2 1401:4 1434:2 1465:4 1469:4 1476:2 1516:4 1538:2 1557:2 1598:2 1638:2 1667:2 1678:2 1682:4 1683:2 1702:2 1722:6 1723:2 1728:4 1730:2 1751:2 1771:2 1788:2 1803:2 1815:2 1819:2 1853:4 1869:2 1877:2 1878:2 1879:2 1886:2 1892:2 1898:2 1901:2 1908:2}\n'
tp10
a(S't # 9 * 57\n'
S'v 0 3\nv 1 3\n'
S'v 1 3\n'
S'e 0 1 0\n'
S'e 0 1 0\n'
S' {76:8 118:2 134:10 173:2 192:2 224:2 234:2 238:14 254:6 354:6 445:8 462:4 463:20 485:8 494:4 504:4 509:4 537:6 538:4 544:2 620:10 679:2 733:2 782:2 795:4 856:4 860:6 879:2 956:6 968:2 989:22 1008:6 1061:2 1077:2 1106:2 1215:2 1326:2 1342:2 1345:2 1379:2 1453:2 1466:2 1473:2 1502:2 1527:2 1528:2 1550:4 1596:6 1612:2 1756:2 1770:2 1774:2 1851:2 1866:2 1913:2 1916:2 1927:2}\n'
tp11
a(S't # 10 * 250\n'
S'v 0 4\nv 1 12\n'
S'v 1 12\n'
S'e 0 1 0\n'
S'e 0 1 0\n'
S' {14:1 31:1 43:1 45:1 50:2 96:2 101:1 109:1 111:1 123:1 129:3 131:1 133:1 143:1 153:1 162:1 186:1 187:1 208:1 215:2 216:2 221:1 241:1 246:2 288:1 292:2 318:2 328:1 332:1 338:1 339:1 345:2 350:3 367:1 370:1 374:1 375:1 388:3 390:1 393:2 412:1 421:1 432:1 448:1 453:1 476:1 516:1 526:1 530:1 552:2 558:1 572:1 582:3 594:1 595:1 597:2 600:1 601:1 604:1 607:1 609:1 629:1 634:1 636:1 637:1 650:1 660:3 676:1 682:1 690:2 698:4 712:1 743:6 744:1 745:3 761:2 763:2 775:1 781:1 785:1 799:1 818:1 837:1 843:1 851:1 865:1 877:1 902:1 910:2 911:1 946:3 965:1 969:1 973:1 981:2 992:3 1019:2 1022:2 1025:1 1026:1 1030:1 1032:1 1033:1 1034:1 1044:1 1052:1 1054:1 1068:1 1080:1 1081:1 1083:1 1093:1 1096:1 1114:1 1118:1 1124:1 1131:1 1137:1 1138:1 1150:1 1153:1 1158:2 1177:1 1181:1 1182:1 1198:1 1209:1 1212:1 1213:1 1214:1 1216:1 1221:1 1237:1 1243:1 1251:1 1253:1 1255:1 1256:1 1258:1 1264:1 1276:1 1279:1 1284:1 1298:1 1300:1 1301:1 1307:1 1317:1 1325:1 1337:1 1340:1 1342:1 1348:2 1349:1 1352:2 1357:1 1364:1 1368:1 1375:1 1377:1 1382:1 1384:1 1392:2 1404:2 1405:1 1409:2 1418:1 1425:1 1426:1 1430:1 1431:2 1436:1 1441:1 1446:2 1450:1 1451:1 1452:1 1473:2 1479:2 1494:1 1529:1 1538:3 1546:1 1547:2 1565:2 1580:1 1582:2 1587:1 1592:1 1594:1 1600:1 1610:1 1612:1 1618:1 1623:1 1624:2 1632:1 1638:1 1648:1 1651:1 1657:1 1658:1 1660:1 1662:1 1664:1 1682:1 1683:1 1690:1 1697:1 1712:1 1723:1 1726:3 1727:1 1730:4 1736:1 1758:1 1763:1 1768:1 1769:1 1771:1 1783:1 1800:1 1806:1 1812:2 1813:1 1815:1 1821:1 1823:2 1831:1 1841:2 1846:2 1858:1 1862:2 1863:1 1869:2 1875:1 1876:2 1878:3 1879:2 1886:1 1889:1 1892:1 1901:1 1902:2 1903:1 1908:2 1921:1 1927:1 1931:1 1941:1}\n'
tp12
a(S't # 11 * 200\n'
S'v 0 5\nv 1 5\n'
S'v 1 5\n'
S'e 0 1 0\n'
S'e 0 1 0\n'
S' {1:4 2:8 20:2 23:2 45:4 100:6 101:2 131:2 139:2 162:2 164:6 185:4 212:4 246:4 258:2 262:16 267:6 282:4 296:8 302:14 303:6 305:2 310:8 315:2 321:2 322:2 324:2 327:2 334:2 335:2 361:2 363:2 371:2 374:2 391:8 395:2 409:10 416:4 417:2 418:6 421:2 425:4 434:2 440:4 457:2 459:2 466:4 467:4 475:6 479:2 484:6 493:6 500:2 512:2 522:8 523:2 540:2 550:2 554:6 555:2 566:4 575:12 585:6 587:2 591:6 596:2 600:2 603:2 604:4 606:4 610:2 611:4 660:2 664:36 669:2 674:4 678:10 687:4 707:2 722:2 727:2 728:4 735:12 740:4 743:8 744:4 747:2 767:6 769:2 784:8 785:2 786:6 790:2 806:2 826:10 836:14 855:4 861:2 893:4 895:2 938:6 941:4 946:6 962:2 965:2 969:2 978:2 992:6 998:2 999:2 1002:6 1010:2 1032:2 1049:6 1090:4 1123:4 1124:2 1136:2 1156:2 1159:2 1166:2 1183:4 1186:4 1196:2 1224:2 1229:2 1235:2 1245:4 1251:2 1292:2 1302:2 1307:2 1313:2 1325:2 1333:2 1339:2 1345:4 1357:2 1364:2 1365:4 1388:4 1389:2 1401:2 1410:2 1418:2 1430:2 1448:2 1464:2 1465:2 1470:4 1476:2 1478:2 1482:2 1488:4 1505:2 1518:2 1534:2 1541:2 1555:2 1575:10 1582:4 1591:4 1597:2 1598:2 1617:2 1656:4 1660:2 1664:2 1670:2 1676:2 1686:2 1689:6 1702:2 1705:4 1710:2 1722:4 1728:2 1729:2 1750:2 1751:2 1766:2 1780:6 1781:4 1782:2 1803:2 1811:2 1812:4 1821:2 1823:2 1844:2 1846:2 1847:8 1869:2 1892:2 1901:2 1908:2 1912:2 1938:2 1941:2 1945:2}\n'
tp13
a(S't # 12 * 51\n'
S'v 0 10\nv 1 10\n'
S'v 1 10\n'
S'e 0 1 0\n'
S'e 0 1 0\n'
S' {0:2 42:4 68:4 76:2 192:8 198:8 224:2 226:6 254:6 359:2 396:6 433:6 462:2 463:8 501:2 531:2 538:2 571:6 580:6 627:12 631:26 712:6 793:6 795:2 874:6 884:6 885:4 937:4 976:4 1014:2 1016:2 1058:2 1189:2 1254:2 1313:2 1322:4 1330:2 1341:2 1366:4 1496:2 1526:2 1528:4 1612:4 1629:2 1639:4 1653:2 1747:2 1789:2 1899:2 1904:2 1921:2}\n'
tp14
a(S't # 13 * 491\n'
S'v 0 4\nv 1 4\n'
S'v 1 4\n'
S'e 0 1 1\n'
S'e 0 1 1\n'
S' {3:2 4:6 6:2 11:2 12:4 13:4 15:2 16:2 17:4 18:4 20:6 21:10 22:2 24:8 25:4 30:2 34:4 41:2 43:4 48:2 49:2 51:4 54:4 55:8 56:2 57:2 61:8 63:6 67:4 69:2 70:2 71:2 72:2 74:2 78:2 80:2 81:4 84:6 88:2 90:6 96:2 100:8 108:4 111:2 112:6 115:2 116:2 117:4 120:4 128:8 129:6 130:8 132:2 135:2 136:2 141:2 149:2 152:2 153:8 154:20 159:2 161:4 163:2 165:6 170:2 171:4 172:2 175:2 178:2 179:4 181:2 182:2 183:2 188:2 189:2 195:4 197:2 199:2 201:2 207:4 208:4 210:2 213:2 214:6 215:4 216:2 222:6 228:4 233:6 235:2 239:4 243:2 246:6 247:4 248:2 251:4 253:4 256:10 257:2 260:2 263:2 264:6 274:2 277:4 278:2 280:2 283:2 285:6 287:2 288:16 289:4 291:10 293:12 296:2 297:8 300:8 306:4 307:2 308:2 314:14 316:6 320:4 326:2 328:2 334:2 337:2 338:2 341:2 342:2 345:4 347:2 349:4 350:14 351:2 352:22 353:2 356:2 362:8 365:2 366:2 369:14 374:4 378:4 383:2 385:2 393:2 394:2 398:2 401:2 402:2 408:18 410:6 419:6 424:4 426:8 427:4 430:2 435:4 437:10 443:12 448:2 449:2 450:2 453:12 456:2 458:8 460:2 466:14 468:4 469:20 470:16 478:8 480:2 483:24 487:4 489:8 490:2 492:2 495:4 497:2 498:2 504:2 506:4 507:8 508:4 512:6 516:2 517:2 520:4 524:2 527:2 528:2 529:4 533:18 534:2 541:2 543:6 548:16 549:2 551:2 552:4 556:2 558:2 562:4 564:2 567:6 572:2 576:2 579:2 581:2 582:4 586:4 588:8 589:6 590:6 597:2 601:2 606:2 607:2 608:10 609:2 610:2 614:2 619:2 626:2 628:26 632:2 634:2 636:2 640:2 642:10 643:2 651:8 652:2 655:16 656:16 659:2 660:6 668:2 672:2 680:8 687:2 689:2 690:4 693:4 694:2 695:4 698:20 702:2 703:2 706:2 709:2 711:10 713:2 714:8 717:4 718:2 720:6 725:10 727:6 734:2 737:8 742:4 743:6 744:2 745:10 746:8 749:2 751:34 754:14 758:6 760:4 761:2 762:2 763:2 764:6 765:2 776:6 777:8 779:2 785:2 788:2 789:4 792:2 794:4 797:2 798:8 801:4 803:4 805:2 810:2 811:2 812:2 813:6 816:8 819:2 821:2 822:6 823:2 825:6 831:2 834:2 838:4 839:4 840:2 841:4 843:4 846:4 847:2 849:12 857:10 858:10 862:8 867:4 868:12 877:2 880:4 883:4 888:16 891:2 892:12 893:6 897:4 902:2 903:4 907:6 911:2 913:2 914:2 916:4 918:2 919:2 923:4 924:22 927:2 932:6 933:2 945:2 946:2 948:4 950:8 952:8 960:2 966:2 976:2 980:2 981:8 983:6 985:2 987:14 991:2 994:2 997:6 1001:2 1003:10 1007:8 1009:6 1012:6 1018:2 1022:4 1027:4 1028:2 1029:4 1043:2 1044:6 1048:2 1065:6 1072:2 1080:2 1088:2 1090:4 1094:6 1097:2 1101:2 1118:2 1122:2 1128:2 1131:2 1150:12 1153:4 1155:2 1156:6 1158:4 1159:2 1167:2 1180:20 1182:2 1184:2 1222:2 1223:4 1224:2 1228:10 1230:2 1233:4 1234:2 1242:2 1250:2 1254:2 1261:2 1264:2 1269:2 1282:2 1298:8 1331:2 1342:2 1352:2 1363:4 1364:2 1366:2 1375:2 1377:2 1382:2 1395:6 1404:4 1409:2 1410:2 1411:2 1418:4 1419:2 1426:6 1431:2 1446:2 1451:2 1473:2 1476:6 1479:2 1483:2 1489:2 1494:4 1500:2 1505:2 1514:4 1529:2 1530:8 1531:4 1532:2 1538:2 1541:2 1547:2 1565:4 1569:2 1571:2 1575:2 1582:2 1600:2 1609:2 1618:8 1624:2 1625:2 1632:2 1648:2 1652:2 1661:2 1675:2 1682:2 1687:4 1695:2 1697:4 1700:2 1703:2 1710:2 1712:4 1719:2 1720:4 1723:6 1726:2 1730:6 1767:2 1776:4 1784:6 1794:4 1796:8 1812:2 1814:2 1823:2 1841:2 1846:4 1856:4 1857:2 1862:2 1863:2 1866:2 1876:4 1878:6 1879:4 1881:2 1900:2 1902:2 1908:10 1926:4 1942:2}\n'
tp15
a(S't # 14 * 46\n'
S'v 0 1\nv 1 8\n'
S'v 1 8\n'
S'e 0 1 0\n'
S'e 0 1 0\n'
S' {35:1 113:1 169:2 184:2 196:5 336:2 411:3 559:1 842:1 845:4 859:2 1026:1 1036:1 1038:1 1089:1 1140:1 1147:1 1198:1 1212:1 1217:1 1226:1 1281:1 1301:1 1319:1 1373:1 1389:1 1396:2 1408:3 1435:1 1464:2 1557:2 1558:1 1574:1 1583:1 1598:1 1625:2 1649:1 1650:2 1660:1 1682:1 1727:1 1731:1 1783:1 1827:1 1841:1 1935:1}\n'
tp16
a(S't # 15 * 117\n'
S'v 0 4\nv 1 7\n'
S'v 1 7\n'
S'e 0 1 0\n'
S'e 0 1 0\n'
S' {752:1 873:1 1014:2 1021:1 1026:1 1029:1 1040:1 1045:1 1048:1 1054:1 1059:1 1082:1 1085:1 1089:1 1107:1 1110:1 1117:1 1122:2 1129:1 1131:1 1142:1 1162:1 1167:1 1182:1 1198:1 1209:1 1211:1 1223:2 1227:1 1231:1 1245:1 1251:1 1259:1 1263:1 1267:1 1277:1 1282:1 1288:1 1302:1 1315:1 1327:1 1333:1 1336:1 1355:1 1358:1 1361:1 1371:1 1380:1 1386:1 1398:1 1399:1 1420:1 1425:1 1429:1 1447:1 1449:1 1456:1 1459:1 1468:1 1480:1 1485:1 1504:1 1511:1 1512:1 1539:2 1542:1 1548:1 1554:1 1567:1 1578:1 1585:1 1603:1 1607:1 1620:1 1626:1 1631:1 1638:1 1655:1 1661:1 1672:1 1694:1 1706:1 1707:1 1718:1 1721:1 1727:1 1735:1 1746:1 1752:1 1759:1 1772:1 1773:1 1779:1 1798:1 1800:1 1813:1 1829:1 1830:1 1832:1 1848:1 1852:1 1861:1 1867:1 1868:1 1870:1 1871:1 1874:1 1881:1 1896:1 1926:1 1933:1 1936:1 1946:1 1949:1 1950:1 1951:1 1953:1}\n'
tp17
a(S't # 16 * 260\n'
S'v 0 5\nv 1 11\n'
S'v 1 11\n'
S'e 0 1 0\n'
S'e 0 1 0\n'
S' {15:1 59:1 60:2 65:3 77:2 78:1 83:4 111:2 146:1 148:1 162:1 181:1 212:2 246:1 264:1 288:1 300:1 304:3 315:1 334:2 370:1 374:1 388:1 393:2 394:2 432:1 440:1 442:3 452:1 481:3 500:2 504:1 512:1 525:1 550:1 555:1 563:3 584:1 587:2 594:2 602:1 609:1 611:2 617:1 636:1 639:1 659:2 660:1 676:1 677:1 682:2 687:1 689:1 707:1 712:1 728:2 741:2 743:1 744:1 756:1 759:1 761:1 769:1 781:1 791:1 799:1 804:1 817:1 829:1 847:1 848:1 861:1 865:1 872:1 883:1 887:1 890:1 895:1 926:2 931:3 957:1 975:1 981:2 992:1 1011:1 1013:1 1017:2 1018:1 1025:1 1026:1 1027:2 1033:1 1035:1 1044:1 1051:1 1052:1 1054:2 1056:1 1065:2 1073:1 1074:1 1075:1 1080:1 1083:1 1084:1 1089:1 1090:1 1099:1 1103:1 1105:1 1106:1 1107:1 1114:1 1131:1 1136:1 1137:1 1156:1 1158:2 1160:1 1161:1 1166:1 1177:1 1183:2 1186:1 1195:2 1200:1 1214:1 1223:2 1225:2 1233:1 1235:1 1245:2 1246:1 1250:1 1252:1 1269:1 1277:1 1291:1 1292:1 1301:5 1303:1 1304:1 1313:2 1318:1 1320:2 1330:1 1336:1 1338:1 1339:2 1344:2 1350:1 1352:1 1364:2 1375:1 1379:1 1390:1 1400:1 1402:1 1405:1 1418:1 1430:2 1435:1 1441:1 1443:1 1446:1 1448:1 1451:1 1455:3 1458:1 1460:2 1462:2 1469:1 1473:1 1481:1 1485:1 1501:1 1511:1 1515:2 1525:1 1527:1 1529:3 1530:1 1533:1 1541:2 1580:1 1588:1 1591:1 1592:1 1617:1 1621:1 1625:1 1641:1 1642:1 1645:1 1647:1 1652:1 1657:1 1661:1 1664:1 1667:1 1683:1 1689:4 1690:1 1693:1 1695:1 1697:2 1702:1 1703:1 1707:1 1709:1 1710:1 1719:2 1726:1 1727:1 1729:1 1731:1 1742:1 1750:2 1758:1 1767:1 1768:1 1774:1 1777:2 1808:1 1811:3 1812:1 1817:1 1818:1 1822:1 1823:2 1831:1 1834:1 1835:1 1840:2 1844:1 1846:1 1847:1 1853:4 1857:1 1858:1 1863:1 1877:1 1886:1 1887:1 1889:1 1892:1 1900:1 1901:3 1902:1 1903:2 1908:3 1909:1 1910:1 1911:1 1912:3 1920:1 1924:1 1934:1 1942:1 1944:1}\n'
tp18
a(S't # 17 * 95\n'
S'v 0 0\nv 1 4\n'
S'v 1 4\n'
S'e 0 1 0\n'
S'e 0 1 0\n'
S' {1027:1 1037:1 1039:1 1041:1 1055:1 1062:1 1067:1 1086:1 1097:1 1109:1 1116:1 1121:1 1139:1 1141:1 1149:1 1170:1 1181:1 1201:1 1206:1 1207:1 1216:1 1230:1 1232:1 1233:1 1234:1 1236:1 1242:1 1244:1 1255:1 1273:1 1282:1 1283:1 1287:1 1301:1 1314:1 1316:1 1329:1 1332:1 1334:1 1347:1 1360:1 1376:1 1378:1 1382:1 1395:1 1397:1 1406:1 1410:1 1412:1 1413:1 1433:1 1438:1 1443:1 1454:1 1476:1 1500:1 1537:1 1540:1 1561:1 1565:1 1573:1 1590:1 1594:1 1604:1 1608:1 1609:2 1614:1 1616:1 1630:1 1669:1 1673:1 1687:2 1688:1 1696:1 1699:1 1716:1 1726:1 1744:1 1807:1 1816:1 1839:1 1842:1 1845:1 1866:1 1872:1 1873:1 1878:2 1882:1 1892:1 1894:1 1908:1 1923:1 1926:1 1928:1 1929:1}\n'
tp19
a(S't # 18 * 83\n'
S'v 0 4\nv 1 8\n'
S'v 1 8\n'
S'e 0 1 0\n'
S'e 0 1 0\n'
S' {452:1 752:1 1023:1 1026:1 1036:1 1047:1 1050:1 1078:1 1087:2 1089:2 1091:1 1100:1 1124:1 1135:1 1152:1 1153:1 1155:1 1157:1 1163:1 1178:1 1185:1 1212:1 1217:1 1223:1 1225:1 1239:1 1251:1 1255:1 1267:1 1274:1 1276:1 1281:1 1282:1 1284:1 1293:1 1297:1 1298:3 1300:1 1309:1 1324:1 1356:1 1375:1 1396:1 1404:1 1405:1 1411:1 1416:1 1419:1 1431:1 1446:1 1455:1 1474:1 1476:1 1477:1 1479:1 1482:1 1484:1 1532:1 1551:1 1562:2 1566:1 1569:1 1595:1 1628:2 1642:1 1707:1 1713:1 1743:1 1745:2 1754:1 1762:1 1785:1 1795:1 1807:1 1808:1 1814:3 1825:1 1828:1 1856:1 1879:2 1919:1 1948:1 1952:1}\n'
tp20
a(S't # 19 * 46\n'
S'v 0 6\nv 1 13\n'
S'v 1 13\n'
S'e 0 1 0\n'
S'e 0 1 0\n'
S' {27:1 232:1 372:1 388:2 536:2 787:1 802:2 909:3 921:2 1019:1 1094:1 1118:1 1153:1 1156:3 1215:1 1224:1 1229:1 1235:1 1253:1 1303:1 1322:1 1388:1 1403:1 1432:1 1464:1 1488:1 1500:1 1513:1 1544:1 1621:1 1634:1 1664:1 1666:1 1682:1 1701:1 1709:1 1722:1 1734:1 1762:1 1794:1 1862:2 1876:1 1898:1 1902:1 1911:1 1934:1}\n'
tp21
a(S't # 20 * 147\n'
S'v 0 12\nv 1 12\n'
S'v 1 12\n'
S'e 0 1 1\n'
S'e 0 1 1\n'
S' {8:10 19:8 20:6 28:2 45:2 50:2 64:2 83:2 85:2 94:10 102:2 114:2 123:2 133:2 137:4 139:2 151:6 153:2 180:2 187:2 216:2 221:2 236:6 279:2 284:16 292:2 321:2 322:2 324:2 332:2 348:4 377:2 379:8 387:2 388:12 390:10 399:2 400:6 417:2 474:2 475:2 481:2 502:4 511:6 544:4 563:2 569:2 578:10 585:2 597:2 604:4 618:2 625:4 650:2 653:2 663:4 666:8 698:4 735:8 743:4 745:4 770:6 784:4 804:2 806:2 829:2 836:12 865:2 869:14 873:2 900:10 957:4 959:2 965:2 967:6 969:2 972:4 992:6 1019:2 1022:2 1030:2 1056:4 1072:2 1107:2 1124:2 1153:2 1193:2 1210:2 1214:2 1215:2 1235:2 1236:4 1251:2 1252:2 1262:2 1280:2 1305:2 1307:2 1313:4 1320:2 1325:8 1328:2 1340:2 1344:2 1345:4 1348:2 1352:2 1357:2 1363:2 1401:2 1404:2 1410:2 1440:6 1465:2 1469:2 1516:2 1526:2 1541:2 1555:2 1557:2 1597:2 1634:4 1648:2 1656:2 1676:4 1682:2 1683:6 1685:2 1690:2 1708:2 1722:4 1726:2 1728:2 1733:2 1751:2 1763:2 1786:2 1803:2 1815:2 1841:2 1846:2 1853:2 1869:2 1878:2 1898:2 1901:2 1945:2}\n'
tp22
a(S't # 21 * 31\n'
S'v 0 8\nv 1 8\n'
S'v 1 8\n'
S'e 0 1 0\n'
S'e 0 1 0\n'
S' {167:2 196:6 230:2 411:2 783:6 845:2 971:4 1047:2 1124:2 1187:2 1367:2 1375:2 1383:2 1408:2 1436:2 1484:4 1518:2 1534:4 1562:2 1569:4 1601:2 1625:2 1643:2 1649:2 1660:2 1738:2 1741:2 1761:2 1827:4 1895:2 1940:2}\n'
tp23
a(S't # 22 * 63\n'
S'v 0 7\nv 1 11\n'
S'v 1 11\n'
S'e 0 1 0\n'
S'e 0 1 0\n'
S' {588:1 1022:1 1042:1 1048:1 1053:1 1059:1 1076:1 1082:1 1083:1 1085:1 1179:1 1194:1 1211:1 1220:1 1227:1 1231:1 1263:1 1294:1 1327:1 1331:1 1333:1 1354:1 1361:1 1399:1 1420:1 1429:1 1444:1 1447:1 1459:1 1479:1 1480:1 1492:1 1499:1 1504:1 1539:1 1549:1 1576:1 1593:1 1637:1 1655:1 1672:1 1675:1 1698:1 1704:1 1721:1 1727:2 1779:1 1811:1 1826:1 1832:1 1848:1 1852:1 1868:1 1871:1 1884:1 1893:1 1900:1 1905:1 1906:1 1930:1 1932:1 1946:1 1950:1}\n'
tp24
a(S't # 23 * 78\n'
S'v 0 1\nv 1 4\n'
S'v 1 4\n'
S'e 0 1 0\n'
S'e 0 1 0\n'
S' {122:1 466:2 859:1 1023:1 1028:1 1032:1 1043:2 1052:1 1054:1 1063:1 1089:1 1101:1 1119:1 1130:1 1138:1 1147:1 1168:1 1176:1 1183:1 1203:1 1205:1 1233:2 1240:1 1255:1 1256:1 1271:1 1277:1 1285:1 1295:1 1296:1 1302:1 1307:1 1312:1 1317:2 1319:1 1323:1 1331:1 1372:1 1373:1 1404:1 1419:2 1431:1 1437:1 1439:1 1458:1 1487:1 1494:2 1497:1 1505:1 1532:1 1559:1 1569:1 1570:1 1574:1 1587:1 1591:1 1602:1 1605:1 1607:1 1627:1 1647:1 1658:1 1660:1 1707:1 1755:1 1757:1 1775:1 1776:1 1792:1 1793:1 1800:1 1841:1 1849:1 1858:1 1878:2 1898:1 1935:1 1937:1}\n'
tp25
a(S't # 24 * 27\n'
S'v 0 9\nv 1 9\n'
S'v 1 9\n'
S'e 0 1 0\n'
S'e 0 1 0\n'
S' {68:12 167:10 234:4 237:10 269:6 753:2 859:2 934:2 1016:2 1064:2 1254:2 1255:2 1257:2 1258:2 1299:4 1300:2 1325:2 1440:4 1524:2 1629:2 1654:4 1666:2 1715:2 1748:2 1790:2 1806:2 1841:2}\n'
tp26
a(S't # 25 * 278\n'
S'v 0 4\nv 1 4\n'
S'v 1 4\n'
S'e 0 1 3\n'
S'e 0 1 3\n'
S' {4:6 6:4 13:2 18:2 20:2 21:6 24:4 25:2 34:4 59:2 61:4 63:4 73:6 80:2 81:2 84:4 90:2 100:2 111:2 117:2 123:2 127:4 128:8 129:2 130:4 147:2 153:4 154:12 155:2 159:2 165:4 171:2 188:4 207:2 208:4 214:6 215:2 233:6 243:2 246:10 247:4 256:8 262:2 277:2 285:4 288:8 291:6 293:8 297:2 300:10 308:2 312:2 316:8 319:2 334:4 338:2 345:2 350:8 352:16 356:2 362:4 369:10 374:6 378:2 385:2 394:4 407:2 408:14 410:4 419:2 426:4 427:8 437:4 443:10 453:8 454:2 458:4 466:10 469:18 470:12 478:4 483:18 486:2 487:4 489:4 492:2 495:2 507:4 508:2 512:2 514:2 520:2 525:2 528:2 529:2 530:2 533:12 541:2 543:4 548:16 552:2 560:4 567:2 574:2 586:4 588:8 589:2 590:2 599:4 608:2 609:6 611:2 622:2 628:32 629:2 642:4 651:10 652:2 655:12 656:12 660:2 679:2 680:4 682:2 690:10 698:24 703:2 711:4 714:4 720:6 725:4 727:2 728:2 743:4 745:4 746:4 751:34 754:10 758:2 760:2 762:2 763:2 764:2 776:2 777:4 780:2 789:2 797:2 801:4 803:2 805:2 810:8 813:4 816:4 825:2 834:2 838:2 839:2 841:2 846:2 849:8 854:2 857:6 858:6 868:6 871:4 880:2 888:10 892:6 893:10 899:4 907:2 910:2 913:2 923:2 924:24 932:2 948:2 950:4 952:4 981:16 985:2 987:10 997:4 1003:2 1007:4 1009:2 1019:2 1022:2 1024:2 1026:4 1027:2 1029:2 1039:2 1043:4 1044:10 1052:2 1054:2 1058:2 1065:2 1087:2 1090:8 1097:2 1099:2 1150:8 1153:4 1156:6 1157:2 1166:4 1180:14 1182:2 1214:2 1223:2 1228:6 1233:2 1242:2 1298:8 1301:6 1313:2 1317:2 1326:2 1344:2 1357:2 1363:2 1364:2 1369:2 1395:4 1404:2 1418:2 1431:4 1436:2 1446:4 1455:2 1458:2 1467:2 1494:2 1500:2 1505:4 1509:2 1514:2 1530:4 1531:4 1532:2 1538:2 1541:2 1560:2 1565:2 1618:4 1633:2 1647:2 1687:6 1690:2 1697:6 1712:2 1720:2 1723:6 1727:2 1730:2 1765:2 1776:2 1781:2 1782:2 1794:2 1812:4 1813:4 1837:2 1841:2 1856:2 1858:2 1876:8 1878:2 1879:2 1886:2 1892:2 1898:2 1908:12 1926:2 1941:4}\n'
tp27
a(S't # 26 * 56\n'
S'v 0 10\nv 1 11\n'
S'v 1 11\n'
S'e 0 1 1\n'
S'e 0 1 1\n'
S' {42:4 226:6 338:2 444:1 453:1 463:1 501:1 504:1 547:1 712:2 724:1 726:1 795:1 976:2 1018:1 1019:1 1020:1 1058:1 1105:1 1133:1 1153:1 1157:1 1158:2 1177:1 1182:1 1214:1 1254:1 1258:1 1277:1 1317:2 1336:1 1342:1 1368:1 1371:1 1384:1 1467:1 1496:1 1543:2 1612:1 1619:1 1629:1 1642:1 1653:1 1687:1 1700:1 1747:1 1789:2 1794:1 1876:1 1887:1 1899:1 1904:1 1916:1 1921:1 1942:2 1944:1}\n'
tp28
a(S't # 27 * 42\n'
S'v 0 0\nv 1 4\n'
S'v 1 4\n'
S'e 0 1 1\n'
S'e 0 1 1\n'
S' {1015:1 1081:1 1092:1 1098:1 1141:1 1166:1 1181:2 1182:2 1230:1 1234:1 1242:2 1247:1 1255:1 1267:1 1270:1 1297:1 1310:1 1311:1 1340:1 1351:1 1372:1 1385:1 1387:1 1413:1 1432:1 1438:1 1443:1 1476:1 1500:1 1564:1 1568:1 1628:1 1669:1 1708:1 1753:1 1755:1 1802:1 1850:1 1863:1 1878:2 1909:1 1914:1}\n'
tp29
a(S't # 28 * 26\n'
S'v 0 2\nv 1 8\n'
S'v 1 8\n'
S'e 0 1 0\n'
S'e 0 1 0\n'
S' {675:1 845:3 947:3 1108:1 1164:1 1255:1 1260:1 1266:1 1298:1 1335:2 1436:1 1455:1 1586:1 1668:1 1671:2 1681:1 1704:1 1717:1 1743:1 1760:1 1763:1 1764:1 1827:1 1890:1 1948:2 1953:1}\n'
tp30
a(S't # 29 * 55\n'
S'v 0 1\nv 1 11\n'
S'v 1 11\n'
S'e 0 1 0\n'
S'e 0 1 0\n'
S' {89:1 859:3 1032:1 1043:1 1052:1 1063:1 1091:1 1120:1 1154:1 1195:2 1222:1 1226:1 1249:1 1250:1 1268:1 1272:1 1277:1 1281:1 1285:1 1295:1 1306:1 1312:1 1329:1 1338:1 1422:1 1427:1 1435:1 1439:1 1446:2 1458:1 1476:1 1521:1 1559:1 1569:1 1570:1 1623:1 1627:1 1629:1 1642:1 1647:1 1649:1 1660:2 1684:1 1729:3 1731:1 1755:1 1765:1 1792:1 1814:1 1817:1 1867:1 1880:1 1900:1 1916:1 1947:2}\n'
tp31
a(S't # 30 * 48\n'
S'v 0 3\nv 1 10\n'
S'v 1 10\n'
S'e 0 1 1\n'
S'e 0 1 1\n'
S' {0:1 76:4 173:1 192:3 224:2 234:1 254:8 359:2 462:4 463:17 504:3 509:1 538:4 544:2 620:2 631:2 793:1 879:1 881:1 885:2 905:1 956:2 976:1 989:4 1027:1 1058:1 1073:1 1077:1 1172:1 1215:2 1254:3 1279:1 1308:1 1366:1 1421:1 1453:1 1457:1 1467:1 1528:2 1577:1 1608:1 1612:3 1756:1 1783:2 1789:1 1837:1 1854:1 1864:1}\n'
tp32
a(S't # 31 * 179\n'
S'v 0 5\nv 1 5\n'
S'v 1 5\n'
S'e 0 1 1\n'
S'e 0 1 1\n'
S' {1:2 2:8 20:4 45:4 65:2 77:2 96:2 100:10 111:2 114:2 139:2 164:4 185:2 212:2 218:2 246:2 262:14 267:4 282:2 296:8 302:12 303:4 304:2 310:6 321:4 322:2 363:2 371:2 387:2 388:4 390:6 391:6 409:8 416:2 418:4 425:2 440:2 466:4 467:4 474:2 475:4 481:8 484:4 493:4 522:8 540:2 554:4 566:2 575:10 585:4 587:2 591:6 604:6 611:2 664:42 667:2 674:2 678:8 682:2 687:2 728:2 735:16 740:2 743:8 744:2 747:2 767:4 770:2 784:4 785:2 786:4 826:10 836:18 855:2 859:4 887:2 893:10 926:2 938:2 941:2 946:6 958:2 969:2 992:4 1002:4 1027:2 1030:2 1043:2 1049:4 1066:2 1068:4 1072:2 1087:2 1090:2 1095:2 1102:2 1107:2 1114:2 1123:2 1124:2 1156:2 1174:2 1183:2 1186:2 1225:2 1236:2 1245:2 1252:2 1269:2 1276:2 1281:2 1298:2 1301:2 1305:2 1313:2 1320:2 1328:2 1339:2 1340:2 1345:8 1364:6 1365:2 1381:2 1388:2 1401:2 1418:2 1430:2 1464:2 1470:4 1488:4 1515:2 1516:2 1525:2 1529:2 1534:2 1544:2 1555:2 1557:2 1575:10 1582:2 1597:6 1646:2 1656:2 1657:2 1664:2 1676:4 1678:2 1683:6 1689:4 1690:2 1695:2 1697:6 1700:4 1701:2 1705:2 1722:6 1723:2 1742:2 1751:4 1780:6 1781:2 1782:2 1783:2 1791:2 1794:2 1808:4 1812:4 1814:2 1824:2 1846:2 1847:6 1853:2 1877:2 1886:2 1898:2 1911:2 1912:8 1932:2 1945:2}\n'
tp33
a(S't # 32 * 51\n'
S'v 0 8\nv 1 11\n'
S'v 1 11\n'
S'e 0 1 0\n'
S'e 0 1 0\n'
S' {1044:1 1050:3 1078:1 1089:1 1094:1 1100:1 1137:1 1140:1 1169:1 1194:1 1250:1 1258:1 1268:1 1274:1 1335:1 1336:1 1367:1 1402:1 1416:1 1428:1 1435:1 1444:1 1473:2 1479:1 1484:1 1495:1 1518:1 1522:1 1551:1 1563:1 1569:1 1570:1 1595:1 1628:1 1635:1 1671:1 1681:1 1707:1 1761:1 1763:1 1765:1 1778:1 1795:1 1804:1 1809:1 1811:1 1822:1 1825:1 1841:1 1895:1 1908:2}\n'
tp34
a(S't # 33 * 27\n'
S'v 0 1\nv 1 1\n'
S'v 1 1\n'
S'e 0 1 0\n'
S'e 0 1 0\n'
S' {169:2 196:6 309:2 336:4 428:12 859:8 1030:2 1038:2 1147:2 1203:2 1271:2 1290:2 1319:2 1487:4 1555:2 1557:2 1558:2 1571:2 1599:2 1601:2 1611:2 1660:2 1680:2 1685:2 1740:2 1801:2 1878:2}\n'
tp35
a(S't # 34 * 14\n'
S'v 0 0\nv 1 7\n'
S'v 1 7\n'
S'e 0 1 0\n'
S'e 0 1 0\n'
S' {641:4 842:2 864:1 939:4 947:1 1051:1 1152:1 1185:2 1267:1 1340:1 1479:1 1577:1 1760:1 1900:1}\n'
tp36
a(S't # 35 * 56\n'
S'v 0 3\nv 1 4\n'
S'v 1 4\n'
S'e 0 1 1\n'
S'e 0 1 1\n'
S' {122:1 238:4 338:1 350:1 504:1 606:1 679:2 782:1 795:3 905:1 1026:1 1061:1 1104:1 1196:1 1228:2 1235:1 1248:2 1254:1 1255:1 1278:1 1326:1 1342:1 1345:1 1346:1 1363:3 1368:1 1369:1 1371:1 1379:1 1400:2 1454:1 1455:1 1466:1 1467:2 1479:1 1602:1 1662:1 1679:1 1691:1 1703:1 1704:1 1712:1 1756:1 1769:1 1783:1 1784:1 1789:1 1819:1 1837:1 1841:2 1866:1 1876:1 1898:1 1900:1 1916:1 1927:1}\n'
tp37
a(S't # 36 * 72\n'
S'v 0 5\nv 1 6\n'
S'v 1 6\n'
S'e 0 1 0\n'
S'e 0 1 0\n'
S' {23:1 145:1 378:1 388:3 416:1 434:1 573:1 598:1 664:3 826:1 848:1 1019:1 1023:1 1024:1 1032:1 1044:1 1056:1 1065:1 1068:1 1083:1 1087:2 1088:1 1100:1 1144:1 1156:1 1160:1 1174:2 1229:1 1236:3 1238:1 1250:1 1251:1 1253:1 1280:1 1307:1 1345:1 1366:1 1388:2 1403:1 1464:2 1465:1 1470:2 1482:1 1501:2 1508:1 1515:1 1534:1 1544:2 1557:3 1591:1 1646:1 1683:3 1689:2 1697:2 1701:1 1710:1 1712:1 1719:1 1722:2 1723:1 1734:1 1771:1 1791:1 1812:1 1818:1 1822:1 1824:1 1892:1 1932:1 1938:1 1941:1 1945:2}\n'
tp38
a(S't # 37 * 393\n'
S'v 0 4\nv 1 4\n'
S'v 1 4\n'
S'e 0 1 2\n'
S'e 0 1 2\n'
S' {3:2 4:8 6:4 12:6 13:2 15:2 17:2 18:2 20:4 21:8 24:6 25:2 34:4 43:2 51:2 54:2 55:4 56:2 57:2 61:6 63:4 67:2 69:2 70:2 72:2 73:2 74:2 75:2 80:4 81:4 84:4 90:4 100:6 103:2 105:2 108:2 115:2 117:2 120:2 128:10 130:6 135:2 154:16 155:2 159:2 161:2 163:2 170:2 171:2 172:2 175:2 178:2 179:2 182:2 188:2 189:2 195:2 199:2 208:10 214:4 220:2 228:2 233:4 238:2 239:2 243:2 246:6 247:4 251:2 253:2 256:12 257:2 277:2 285:4 287:2 288:14 289:2 291:8 293:10 297:8 300:8 306:2 308:2 312:2 314:6 316:8 318:2 320:2 331:2 334:6 337:2 338:4 341:2 342:2 345:2 349:2 350:8 352:22 353:2 356:4 361:2 362:2 369:12 373:2 374:2 378:4 386:2 388:2 389:2 394:4 407:2 408:16 410:4 419:4 424:2 426:6 427:6 435:2 437:10 443:12 450:2 453:10 454:4 458:6 459:2 466:14 468:2 469:20 470:14 477:2 478:6 483:18 486:2 487:8 489:8 490:2 492:6 495:2 504:2 506:2 507:6 508:2 512:4 525:2 528:6 529:2 530:2 533:16 534:2 543:6 548:16 549:2 552:2 556:2 558:2 560:2 562:2 564:2 567:4 574:2 576:2 581:2 582:4 586:4 588:6 589:4 590:4 592:2 595:2 599:2 602:2 607:2 608:8 609:8 622:2 628:28 629:2 642:6 644:2 649:2 651:10 652:2 655:14 656:14 659:2 660:2 661:2 672:2 680:6 682:2 690:2 693:2 695:2 698:22 711:6 714:4 717:2 720:4 721:2 725:8 727:4 730:2 734:2 737:4 742:2 743:4 745:8 746:4 751:34 754:12 758:8 760:2 761:2 762:2 763:2 764:4 776:4 777:12 779:2 780:2 785:2 791:2 792:2 794:2 795:2 796:2 797:6 798:4 801:6 803:6 805:4 810:4 813:2 816:6 825:4 827:2 834:4 838:2 839:2 841:2 843:2 844:2 846:2 849:10 854:4 857:8 858:10 862:4 867:2 868:8 871:2 872:2 875:2 880:4 883:2 888:14 891:2 892:10 893:2 897:2 899:2 903:2 907:4 911:2 913:4 914:2 916:2 919:4 920:2 923:6 924:26 925:2 932:4 933:2 936:2 942:2 946:2 948:2 950:6 952:6 960:2 981:8 983:4 987:12 991:2 997:4 1003:8 1007:6 1009:6 1023:2 1026:2 1032:2 1051:2 1052:4 1054:2 1058:2 1065:4 1072:2 1087:2 1089:2 1090:4 1093:2 1094:4 1097:2 1153:4 1156:8 1157:2 1166:4 1170:2 1180:18 1184:2 1213:2 1228:8 1230:2 1233:2 1242:4 1254:2 1255:2 1298:10 1301:2 1307:2 1325:2 1333:2 1344:2 1357:2 1363:2 1364:2 1369:2 1375:2 1377:2 1384:2 1392:2 1404:4 1409:2 1410:2 1419:2 1432:2 1436:2 1443:2 1446:4 1450:2 1455:2 1465:2 1500:4 1505:2 1514:2 1530:6 1531:2 1532:2 1539:2 1618:2 1624:2 1647:2 1651:2 1661:2 1683:2 1687:2 1693:2 1700:2 1703:2 1704:2 1712:2 1723:4 1727:2 1730:8 1731:2 1736:2 1765:2 1776:2 1783:2 1794:2 1796:4 1808:4 1812:4 1813:4 1817:2 1841:4 1846:2 1856:2 1857:2 1858:2 1863:2 1876:6 1878:8 1879:2 1886:2 1898:4 1900:2 1901:2 1902:2 1908:12 1926:2 1941:2}\n'
tp39
a(S't # 38 * 63\n'
S'v 0 4\nv 1 6\n'
S'v 1 6\n'
S'e 0 1 0\n'
S'e 0 1 0\n'
S' {378:1 417:1 660:1 672:1 1023:1 1024:1 1034:1 1044:1 1048:2 1088:1 1096:1 1097:1 1111:1 1118:1 1153:1 1156:1 1173:1 1235:1 1242:1 1246:1 1253:1 1255:1 1262:1 1313:1 1344:2 1369:1 1403:1 1404:1 1419:1 1432:1 1437:1 1450:1 1465:1 1476:1 1482:1 1483:1 1494:1 1500:2 1501:2 1508:1 1517:1 1560:1 1571:1 1648:2 1662:1 1665:1 1685:1 1710:1 1723:2 1763:1 1771:1 1776:1 1808:1 1856:1 1863:1 1866:2 1876:1 1879:1 1892:1 1898:1 1914:1 1932:1 1941:1}\n'
tp40
a(S't # 39 * 18\n'
S'v 0 2\nv 1 9\n'
S'v 1 9\n'
S'e 0 1 0\n'
S'e 0 1 0\n'
S' {82:1 234:7 237:8 753:1 859:2 1208:1 1374:1 1391:2 1436:2 1461:1 1510:1 1523:1 1584:1 1741:1 1748:1 1764:1 1859:1 1947:1}\n'
tp41
a(S't # 40 * 58\n'
S'v 0 10\nv 1 11\n'
S'v 1 11\n'
S'e 0 1 0\n'
S'e 0 1 0\n'
S' {42:2 192:1 226:3 338:1 451:1 453:1 501:2 712:2 724:1 726:1 795:1 934:1 976:2 1043:1 1073:1 1083:1 1105:1 1113:1 1157:1 1158:1 1167:1 1214:1 1261:1 1277:1 1317:1 1369:1 1371:1 1384:1 1426:1 1428:1 1458:1 1496:1 1543:1 1547:1 1608:1 1612:1 1615:2 1618:1 1619:1 1642:1 1687:2 1693:1 1747:1 1756:3 1783:1 1789:1 1793:1 1818:1 1840:1 1876:1 1889:1 1898:1 1899:1 1904:1 1921:1 1926:1 1944:1 1947:1}\n'
tp42
a(S't # 41 * 16\n'
S'v 0 0\nv 1 1\n'
S'v 1 1\n'
S'e 0 1 0\n'
S'e 0 1 0\n'
S' {150:1 231:1 1038:1 1143:1 1154:1 1329:1 1372:1 1387:1 1413:1 1608:1 1755:1 1867:1 1888:2 1915:1 1923:1 1947:1}\n'
tp43
a(S't # 42 * 66\n'
S'v 0 3\nv 1 5\n'
S'v 1 5\n'
S'e 0 1 0\n'
S'e 0 1 0\n'
S' {118:2 296:1 593:1 603:1 606:1 660:1 712:1 782:1 860:2 881:1 938:2 989:2 1020:1 1028:1 1075:1 1077:1 1164:1 1171:1 1219:2 1248:1 1260:2 1277:1 1278:1 1313:1 1339:1 1345:2 1363:1 1366:1 1370:1 1414:1 1457:1 1467:1 1473:1 1502:1 1525:2 1527:1 1528:1 1550:1 1589:1 1602:1 1667:1 1676:2 1679:1 1691:1 1697:1 1701:2 1711:1 1712:1 1714:1 1733:1 1737:2 1769:1 1770:1 1774:1 1783:1 1784:1 1787:1 1789:1 1824:2 1838:1 1841:1 1851:1 1889:1 1911:1 1913:1 1938:1}\n'
tp44
a(S't # 43 * 57\n'
S'v 0 1\nv 1 5\n'
S'v 1 5\n'
S'e 0 1 0\n'
S'e 0 1 0\n'
S' {428:1 859:3 1013:1 1028:1 1030:1 1032:1 1054:1 1066:1 1079:1 1097:1 1114:2 1132:1 1143:2 1172:2 1197:1 1250:1 1256:1 1271:1 1281:2 1289:1 1290:1 1312:1 1339:1 1341:1 1357:1 1362:1 1365:1 1368:1 1381:1 1390:1 1407:1 1417:1 1505:1 1534:2 1555:2 1556:1 1557:1 1559:1 1597:1 1599:1 1646:1 1680:1 1686:1 1749:1 1766:1 1782:1 1802:1 1805:1 1810:1 1814:1 1844:1 1862:1 1877:2 1885:1 1911:1 1915:1 1917:1}\n'
tp45
a(S't # 44 * 31\n'
S'v 0 2\nv 1 4\n'
S'v 1 4\n'
S'e 0 1 0\n'
S'e 0 1 0\n'
S' {237:1 386:2 451:1 739:1 859:1 1036:1 1043:1 1046:1 1054:1 1068:1 1092:1 1094:4 1097:2 1104:1 1158:1 1213:1 1222:1 1235:1 1255:1 1266:1 1342:1 1369:1 1387:1 1411:2 1455:1 1471:1 1571:1 1647:1 1704:1 1731:1 1765:3}\n'
tp46
a(S't # 45 * 35\n'
S'v 0 8\nv 1 8\n'
S'v 1 8\n'
S'e 0 1 1\n'
S'e 0 1 1\n'
S' {196:8 230:2 286:2 411:2 783:4 845:4 947:2 971:2 1026:6 1050:6 1089:2 1124:4 1134:2 1185:2 1265:2 1335:4 1396:2 1408:2 1428:2 1473:2 1484:2 1534:2 1562:2 1569:2 1595:2 1625:2 1628:2 1650:2 1671:2 1682:2 1739:2 1745:2 1814:2 1827:4 1948:2}\n'
tp47
a(S't # 46 * 287\n'
S'v 0 11\nv 1 12\n'
S'v 1 12\n'
S'e 0 1 0\n'
S'e 0 1 0\n'
S' {10:1 14:1 28:2 33:1 40:2 44:1 59:1 66:2 77:1 83:4 84:1 85:1 87:1 89:1 95:1 97:1 109:1 116:1 123:1 124:1 127:1 129:1 133:2 148:1 153:2 164:1 181:2 202:1 208:2 212:1 214:1 216:1 219:1 221:1 227:2 244:1 246:2 288:2 292:1 324:2 332:1 338:1 345:1 358:1 374:2 388:7 390:1 392:1 399:2 405:3 448:1 453:1 465:2 472:1 473:1 475:1 476:1 487:1 526:1 530:3 555:1 578:1 583:1 594:1 597:1 600:1 601:1 650:2 653:1 666:4 671:4 672:2 673:1 694:4 696:1 698:4 701:2 708:1 728:2 739:1 740:1 741:1 743:1 745:5 750:1 756:2 761:2 766:2 768:1 769:1 780:1 804:1 808:2 818:1 828:1 829:1 843:1 850:2 851:1 852:2 861:1 873:1 889:1 900:1 902:1 906:2 910:2 911:3 928:2 929:1 930:2 953:2 957:3 959:1 973:1 981:4 986:1 992:1 1002:1 1005:1 1013:1 1017:1 1019:3 1022:2 1025:1 1027:1 1029:1 1032:1 1033:1 1039:1 1044:1 1051:1 1052:2 1056:4 1081:1 1083:1 1090:1 1094:1 1099:2 1100:1 1103:1 1106:1 1111:2 1131:1 1133:1 1136:1 1141:1 1144:1 1153:1 1155:2 1156:1 1157:1 1158:1 1160:1 1165:1 1171:1 1183:2 1191:1 1209:1 1214:1 1221:2 1223:1 1235:2 1236:2 1237:1 1242:3 1245:1 1250:1 1267:1 1274:1 1278:1 1281:1 1291:1 1301:1 1302:2 1304:1 1312:1 1325:2 1326:1 1331:1 1336:1 1339:1 1342:1 1347:1 1352:1 1357:2 1363:2 1366:1 1379:1 1386:1 1388:1 1392:1 1400:1 1404:1 1413:1 1423:1 1442:2 1446:1 1453:1 1455:1 1462:1 1465:1 1467:1 1469:1 1473:1 1476:1 1478:1 1481:1 1485:1 1486:1 1501:1 1507:1 1515:1 1518:1 1525:1 1533:1 1538:1 1541:1 1544:1 1547:1 1555:1 1560:1 1571:1 1581:1 1582:2 1588:1 1591:2 1592:1 1609:1 1619:1 1623:2 1633:1 1641:1 1643:2 1659:1 1664:1 1667:1 1675:2 1683:1 1690:2 1691:2 1693:1 1697:1 1702:1 1703:1 1705:1 1707:1 1712:1 1726:1 1730:1 1742:1 1762:1 1763:1 1768:1 1769:1 1774:1 1777:1 1781:1 1789:1 1794:1 1802:1 1806:1 1812:1 1813:1 1818:2 1821:1 1833:1 1853:1 1876:1 1878:2 1883:1 1885:1 1890:1 1892:1 1899:1 1901:1 1902:1 1903:1 1908:2 1910:1 1918:1 1922:1 1926:2 1931:1 1941:1 1942:1 1944:1}\n'
tp48
a(S't # 47 * 46\n'
S'v 0 12\nv 1 13\n'
S'v 1 13\n'
S'e 0 1 1\n'
S'e 0 1 1\n'
S' {23:1 388:2 563:1 615:1 735:2 889:1 908:3 909:2 930:1 958:1 1094:1 1112:1 1153:1 1175:1 1182:1 1183:1 1193:1 1224:1 1235:1 1236:2 1307:1 1325:2 1357:1 1366:1 1432:1 1451:1 1482:1 1500:1 1508:1 1516:2 1538:1 1546:1 1591:1 1634:3 1664:1 1722:1 1730:1 1751:1 1762:1 1782:1 1786:1 1808:1 1876:1 1879:1 1898:1 1902:2}\n'
tp49
a(S't # 48 * 28\n'
S'v 0 5\nv 1 7\n'
S'v 1 7\n'
S'e 0 1 0\n'
S'e 0 1 0\n'
S' {1035:1 1051:1 1053:1 1127:1 1236:1 1245:1 1292:1 1307:1 1333:1 1340:1 1472:1 1488:2 1506:1 1562:1 1579:1 1589:1 1645:1 1652:1 1726:1 1766:1 1780:1 1811:1 1841:1 1860:1 1861:1 1911:1 1932:2 1945:1}\n'
tp50
a(S't # 49 * 42\n'
S'v 0 5\nv 1 10\n'
S'v 1 10\n'
S'e 0 1 0\n'
S'e 0 1 0\n'
S' {68:1 463:1 677:1 881:1 938:1 1060:1 1066:2 1071:1 1151:2 1167:1 1177:1 1186:1 1189:1 1210:1 1275:1 1313:1 1322:2 1336:1 1345:3 1366:1 1368:1 1381:2 1423:1 1428:1 1445:1 1458:1 1467:1 1526:1 1584:1 1612:1 1639:1 1659:1 1670:1 1692:1 1715:1 1723:1 1747:1 1783:1 1887:1 1890:2 1899:1 1904:2}\n'
tp51
a(S't # 50 * 252\n'
S'v 0 11\nv 1 11\n'
S'v 1 11\n'
S'e 0 1 3\n'
S'e 0 1 3\n'
S' {6:2 13:6 15:2 25:2 28:2 34:2 36:2 37:2 40:16 42:2 44:4 52:4 69:2 73:6 74:2 77:2 78:6 83:18 84:2 86:4 93:2 104:2 110:2 111:4 115:2 127:8 128:6 132:6 147:22 153:4 159:4 165:8 168:2 171:2 172:2 188:2 204:4 207:2 208:18 211:4 213:2 214:2 220:4 226:6 227:2 229:2 233:2 240:18 243:6 247:8 264:2 268:2 277:4 281:2 285:10 288:10 290:8 295:2 300:2 307:2 308:8 311:2 316:10 323:2 324:2 326:4 334:4 338:20 350:4 352:8 356:4 362:6 374:2 376:2 385:38 388:2 392:2 402:2 410:6 413:12 427:6 429:8 437:2 439:4 442:4 450:2 454:12 471:4 472:6 482:2 483:2 486:4 487:10 490:6 492:2 496:10 514:18 515:2 518:2 520:2 524:2 528:22 529:10 530:4 535:2 541:4 545:2 553:2 560:4 565:4 568:2 584:2 588:10 599:2 622:4 628:2 639:2 640:4 651:8 652:2 654:2 658:4 659:4 660:4 662:2 666:2 671:2 672:4 683:30 688:2 690:4 694:16 698:2 699:14 703:2 704:2 706:2 710:6 711:2 716:6 720:2 725:2 728:6 730:4 731:4 741:8 745:4 756:6 757:2 760:2 761:2 773:2 796:14 798:22 801:6 803:2 805:12 808:4 810:8 821:2 824:14 828:2 832:2 841:2 850:6 852:4 853:6 854:2 858:2 870:6 880:2 892:6 899:2 904:2 906:6 911:6 912:4 919:2 923:4 928:14 930:2 931:6 933:2 936:8 953:2 957:2 960:2 977:10 980:4 981:10 984:2 985:2 988:10 993:22 996:6 997:4 1017:2 1022:2 1025:2 1048:2 1052:4 1081:2 1094:2 1150:6 1158:2 1166:2 1181:2 1183:2 1214:2 1237:2 1245:2 1250:2 1301:4 1313:2 1317:2 1331:4 1413:2 1430:2 1455:2 1473:2 1476:2 1514:2 1515:2 1530:4 1531:4 1538:2 1541:2 1543:38 1591:2 1592:2 1615:2 1618:8 1647:2 1652:2 1661:2 1689:4 1691:2 1697:6 1719:4 1720:4 1727:4 1758:2 1784:2 1811:4 1813:2 1817:2 1878:2 1889:2 1901:2 1908:10 1910:2 1926:2}\n'
tp52
a(S't # 51 * 39\n'
S'v 0 2\nv 1 4\n'
S'v 1 4\n'
S'e 0 1 1\n'
S'e 0 1 1\n'
S' {237:1 386:4 739:1 1054:1 1068:1 1074:1 1089:1 1092:2 1094:2 1097:1 1126:1 1235:1 1236:1 1277:1 1298:2 1317:2 1323:1 1335:1 1356:1 1369:1 1384:1 1419:2 1437:1 1461:1 1508:1 1535:1 1559:1 1587:1 1647:1 1704:1 1731:1 1743:1 1754:1 1764:1 1765:3 1791:1 1947:1 1948:1 1953:1}\n'
tp53
a(S't # 52 * 51\n'
S'v 0 6\nv 1 11\n'
S'v 1 11\n'
S'e 0 1 0\n'
S'e 0 1 0\n'
S' {350:2 672:2 848:1 917:1 1019:1 1034:3 1035:1 1048:1 1065:2 1092:1 1100:1 1101:1 1174:1 1182:1 1214:1 1221:1 1237:2 1242:1 1246:1 1250:1 1281:1 1282:1 1303:1 1321:1 1346:1 1366:1 1388:1 1389:1 1390:1 1393:1 1403:1 1476:1 1488:1 1513:1 1541:2 1559:1 1660:1 1683:1 1689:1 1700:1 1709:1 1758:1 1808:1 1812:1 1822:1 1861:1 1898:1 1913:1 1934:1 1940:1 1953:1}\n'
tp54
a(S't # 53 * 33\n'
S'v 0 9\nv 1 12\n'
S'v 1 12\n'
S'e 0 1 1\n'
S'e 0 1 1\n'
S' {934:1 1013:1 1016:1 1068:1 1079:1 1186:1 1192:1 1257:1 1262:3 1318:1 1342:1 1362:2 1394:1 1401:1 1421:1 1440:1 1510:1 1523:1 1524:1 1544:1 1584:1 1629:1 1632:1 1646:1 1715:1 1733:2 1739:1 1741:1 1774:1 1788:1 1806:1 1841:1 1869:1}\n'
tp55
a(S't # 54 * 21\n'
S'v 0 0\nv 1 5\n'
S'v 1 5\n'
S'e 0 1 0\n'
S'e 0 1 0\n'
S' {1035:1 1081:1 1181:1 1182:1 1275:1 1292:1 1301:1 1333:1 1359:1 1415:1 1475:1 1493:1 1663:1 1677:1 1732:1 1771:1 1802:1 1836:1 1865:1 1901:1 1943:1}\n'
tp56
a(S't # 55 * 73\n'
S'v 0 5\nv 1 8\n'
S'v 1 8\n'
S'e 0 1 0\n'
S'e 0 1 0\n'
S' {1020:1 1024:1 1038:1 1070:1 1071:1 1087:1 1096:1 1102:1 1107:1 1108:1 1124:5 1148:1 1168:1 1171:1 1187:1 1195:1 1209:1 1225:1 1241:1 1252:1 1260:1 1262:1 1267:1 1274:1 1276:2 1298:1 1328:2 1335:1 1336:1 1342:1 1383:1 1404:1 1407:1 1428:2 1430:1 1435:1 1446:1 1463:1 1476:3 1498:1 1508:1 1536:1 1552:1 1562:1 1583:1 1586:1 1598:1 1625:1 1636:1 1640:1 1654:1 1660:1 1678:1 1681:1 1702:1 1711:1 1729:1 1738:1 1739:2 1741:1 1758:1 1762:1 1808:1 1814:1 1822:1 1824:1 1833:1 1875:1 1907:1 1908:2 1917:1 1940:1 1952:1}\n'
tp57
a(S't # 56 * 55\n'
S'v 0 5\nv 1 13\n'
S'v 1 13\n'
S'e 0 1 3\n'
S'e 0 1 3\n'
S' {388:1 417:2 467:1 523:1 826:1 958:1 1022:1 1028:1 1049:1 1075:1 1090:1 1156:1 1166:2 1182:1 1224:1 1235:1 1245:1 1252:1 1281:1 1286:1 1301:3 1303:1 1322:1 1326:1 1345:2 1357:1 1363:1 1464:1 1465:1 1470:1 1476:1 1482:1 1488:1 1503:1 1516:1 1529:1 1591:1 1701:1 1708:1 1709:1 1722:1 1730:1 1751:2 1758:1 1766:1 1782:1 1783:1 1794:1 1862:1 1898:3 1900:1 1901:1 1908:1 1911:1 1940:1}\n'
tp58
a(S't # 57 * 341\n'
S'v 0 11\nv 1 11\n'
S'v 1 11\n'
S'e 0 1 2\n'
S'e 0 1 2\n'
S' {4:4 6:8 12:4 13:2 15:4 36:4 37:6 40:16 42:2 44:2 52:6 53:4 56:2 66:2 69:10 73:6 74:2 78:2 83:22 84:4 86:2 93:4 104:4 110:4 111:6 115:2 119:2 124:2 125:2 127:6 128:8 132:6 147:24 156:2 159:4 165:6 168:4 172:2 181:4 188:2 190:2 191:2 199:2 200:2 204:6 206:2 207:4 208:12 211:6 214:4 220:6 226:6 227:4 229:2 240:20 243:8 247:10 256:2 259:2 266:2 268:2 277:2 281:2 285:12 288:12 290:10 294:2 295:4 297:4 304:2 308:12 311:4 316:10 323:8 329:4 332:2 333:2 334:6 338:22 340:2 341:2 343:2 345:6 350:2 352:8 356:2 362:6 368:4 374:4 376:4 380:2 381:2 382:2 385:32 388:2 392:4 393:2 404:2 410:6 413:14 415:2 427:8 429:10 437:4 439:6 442:4 447:2 450:2 454:14 455:2 464:2 465:2 471:6 472:8 482:4 486:6 487:18 489:2 490:8 491:2 492:6 496:12 505:2 508:4 510:2 513:2 514:18 515:4 518:4 528:24 529:12 530:4 535:2 541:4 542:2 545:2 546:2 553:4 560:2 563:2 564:2 565:6 568:2 574:2 581:4 584:4 586:2 588:6 599:2 602:2 612:4 614:2 622:4 628:6 640:2 648:2 651:10 652:2 654:2 658:6 659:6 660:4 662:2 671:4 672:2 683:32 684:2 688:4 690:2 694:18 696:2 699:16 703:6 704:2 708:2 710:8 716:8 721:2 725:2 728:6 730:8 731:6 741:10 745:4 756:6 757:2 761:4 773:4 777:4 780:2 789:2 792:2 796:14 797:2 798:26 801:6 803:2 805:18 808:2 809:4 810:14 812:2 817:2 820:4 824:20 828:4 830:2 832:2 838:4 841:4 844:2 850:4 852:4 853:8 854:2 858:2 870:8 871:2 877:2 880:2 892:8 894:2 899:2 904:4 906:8 911:8 912:6 915:2 919:2 923:2 927:2 928:18 931:12 933:2 936:12 940:2 942:2 943:2 944:2 951:2 953:4 955:4 957:2 960:2 964:2 977:12 980:4 981:10 983:2 984:4 985:2 988:12 993:22 996:8 1004:2 1009:2 1011:2 1029:2 1034:2 1039:2 1044:2 1052:6 1056:4 1058:2 1065:4 1080:2 1081:2 1090:2 1103:2 1131:2 1133:2 1150:4 1158:6 1166:2 1183:2 1184:2 1200:2 1214:2 1223:2 1237:6 1242:2 1250:2 1258:2 1277:2 1295:2 1301:6 1317:2 1336:2 1363:2 1364:2 1395:2 1413:4 1435:2 1455:4 1460:2 1473:2 1476:4 1513:2 1525:2 1529:2 1530:2 1533:2 1541:4 1543:40 1571:2 1618:2 1623:2 1642:2 1643:2 1645:2 1652:2 1661:2 1687:2 1693:2 1697:2 1710:2 1719:4 1720:2 1731:2 1750:2 1757:2 1768:2 1784:2 1789:2 1811:6 1813:4 1822:2 1823:2 1853:4 1856:2 1858:2 1876:2 1883:4 1889:2 1900:4 1901:6 1902:4 1903:2 1908:6 1942:2 1944:2}\n'
tp59
a(S't # 58 * 11\n'
S'v 0 13\nv 1 13\n'
S'v 1 13\n'
S'e 0 1 0\n'
S'e 0 1 0\n'
S' {158:6 417:4 536:4 787:6 908:2 921:2 958:2 1166:2 1224:2 1335:2 1587:2}\n'
tp60
a(S't # 59 * 45\n'
S'v 0 3\nv 1 3\n'
S'v 1 3\n'
S'e 0 1 1\n'
S'e 0 1 1\n'
S' {76:6 118:2 134:8 142:6 173:2 238:16 254:6 255:2 354:4 445:6 462:2 463:22 485:6 494:4 504:4 509:2 537:4 547:2 620:14 679:2 795:2 856:2 860:6 879:6 956:4 989:22 1008:4 1020:2 1215:2 1219:2 1254:4 1356:2 1400:2 1519:2 1533:2 1550:2 1596:4 1679:2 1704:2 1737:2 1740:2 1756:2 1769:2 1782:2 1837:2}\n'
tp61
a(S't # 60 * 59\n'
S'v 0 5\nv 1 8\n'
S'v 1 8\n'
S'e 0 1 1\n'
S'e 0 1 1\n'
S' {452:1 504:1 1023:1 1024:1 1060:1 1078:1 1083:1 1087:3 1100:1 1107:1 1124:5 1137:1 1151:1 1155:1 1164:1 1187:1 1190:1 1205:1 1239:1 1250:2 1251:1 1252:1 1260:1 1275:1 1281:1 1298:1 1318:1 1326:1 1339:1 1383:1 1402:1 1430:1 1473:1 1476:2 1508:1 1555:1 1557:1 1562:1 1589:2 1597:1 1598:1 1602:1 1625:1 1634:1 1660:2 1668:1 1674:1 1704:1 1707:1 1717:1 1729:1 1738:1 1741:1 1797:1 1811:1 1841:1 1904:1 1908:1 1953:1}\n'
tp62
a(S't # 61 * 147\n'
S'v 0 5\nv 1 5\n'
S'v 1 5\n'
S'e 0 1 2\n'
S'e 0 1 2\n'
S' {2:6 20:4 45:2 59:2 60:2 100:8 139:2 162:2 164:2 186:2 212:4 242:2 262:12 267:2 296:4 300:2 302:10 303:2 310:4 318:2 321:2 322:2 334:2 337:2 363:2 371:2 388:4 390:6 391:4 409:6 418:2 452:2 466:4 467:2 470:2 475:2 484:2 493:2 522:4 523:2 540:2 554:2 563:2 575:8 585:2 587:2 591:4 594:2 604:6 611:6 664:50 677:2 678:6 707:2 729:2 735:14 743:4 747:2 767:2 778:2 784:6 785:2 786:4 806:2 826:10 829:2 836:16 893:6 938:4 946:6 957:2 962:2 969:2 981:2 992:6 999:2 1002:2 1024:2 1028:2 1030:2 1032:4 1049:2 1065:2 1074:2 1106:2 1124:2 1128:2 1229:2 1235:2 1253:2 1260:2 1269:2 1280:2 1292:2 1301:4 1313:2 1322:2 1333:2 1339:2 1344:2 1345:6 1362:2 1364:2 1388:2 1401:2 1418:2 1430:2 1436:2 1455:2 1458:2 1464:2 1470:2 1482:2 1488:4 1516:4 1534:2 1555:2 1575:6 1582:2 1587:2 1591:2 1597:4 1617:2 1638:2 1664:2 1676:4 1689:4 1707:2 1719:2 1722:10 1726:2 1730:2 1733:2 1734:2 1751:6 1766:2 1774:2 1780:4 1782:2 1803:2 1847:6 1857:2 1862:2 1901:2 1904:2 1912:6 1945:2}\n'
tp63
a(S't # 62 * 22\n'
S'v 0 7\nv 1 8\n'
S'v 1 8\n'
S'e 0 1 0\n'
S'e 0 1 0\n'
S' {82:1 184:1 286:2 559:1 971:1 1026:1 1047:1 1048:1 1198:1 1375:1 1408:1 1495:1 1542:1 1589:1 1595:2 1634:1 1662:1 1800:1 1841:1 1881:1 1900:2 1948:1}\n'
tp64
a(S't # 63 * 17\n'
S'v 0 1\nv 1 1\n'
S'v 1 1\n'
S'e 0 1 1\n'
S'e 0 1 1\n'
S' {169:2 196:6 336:4 411:2 428:10 859:10 1054:2 1112:2 1143:2 1172:2 1464:2 1487:2 1557:2 1660:2 1766:2 1885:2 1888:2}\n'
tp65
a(S't # 64 * 13\n'
S'v 0 9\nv 1 9\n'
S'v 1 9\n'
S'e 0 1 2\n'
S'e 0 1 2\n'
S' {68:6 167:6 237:22 269:2 859:4 947:4 1254:2 1262:4 1374:2 1570:2 1629:2 1764:2 1891:2}\n'
tp66
a(S't # 65 * 23\n'
S'v 0 1\nv 1 12\n'
S'v 1 12\n'
S'e 0 1 0\n'
S'e 0 1 0\n'
S' {1052:1 1112:2 1172:1 1240:1 1307:2 1317:1 1362:1 1417:1 1464:1 1534:1 1557:1 1583:1 1607:1 1646:1 1739:1 1766:1 1786:1 1799:1 1844:1 1858:1 1901:1 1917:1 1937:1}\n'
tp67
a(S't # 66 * 20\n'
S'v 0 2\nv 1 9\n'
S'v 1 9\n'
S'e 0 1 1\n'
S'e 0 1 1\n'
S' {69:1 234:9 237:12 753:1 845:1 859:1 947:1 1104:1 1266:1 1342:1 1374:1 1387:1 1455:1 1586:1 1681:1 1704:1 1764:1 1765:1 1945:1 1953:1}\n'
tp68
a(S't # 67 * 69\n'
S'v 0 5\nv 1 6\n'
S'v 1 6\n'
S'e 0 1 1\n'
S'e 0 1 1\n'
S' {23:1 27:1 145:1 388:2 416:1 417:1 434:1 664:3 826:1 1019:1 1024:1 1032:1 1038:1 1065:1 1097:1 1156:1 1177:1 1210:1 1214:1 1229:2 1246:1 1251:1 1253:1 1269:1 1280:1 1301:1 1307:1 1325:1 1328:1 1345:1 1366:1 1388:2 1390:1 1404:1 1430:1 1432:2 1464:1 1465:1 1470:1 1476:1 1482:2 1488:1 1490:1 1501:1 1560:1 1587:1 1591:1 1602:1 1634:3 1652:1 1689:2 1710:1 1722:3 1723:1 1734:1 1758:1 1762:1 1766:1 1776:1 1808:1 1812:1 1844:1 1898:1 1911:1 1934:1 1938:1 1940:1 1941:2 1945:1}\n'
tp69
a(S't # 68 * 27\n'
S'v 0 5\nv 1 7\n'
S'v 1 7\n'
S'e 0 1 1\n'
S'e 0 1 1\n'
S' {1029:1 1089:1 1182:1 1209:1 1229:1 1245:1 1251:1 1292:1 1302:1 1307:1 1328:1 1333:1 1386:1 1449:1 1482:1 1488:2 1544:1 1606:1 1638:1 1727:1 1766:2 1780:3 1811:1 1900:1 1911:2 1945:1 1953:1}\n'
tp70
a(S't # 69 * 43\n'
S'v 0 5\nv 1 9\n'
S'v 1 9\n'
S'e 0 1 1\n'
S'e 0 1 1\n'
S' {68:2 859:4 1016:1 1065:1 1078:1 1144:1 1151:1 1153:1 1175:1 1186:1 1196:1 1205:1 1208:1 1210:1 1264:1 1325:1 1374:1 1389:1 1401:1 1440:1 1498:1 1503:1 1505:1 1524:1 1526:1 1541:1 1586:1 1622:1 1654:1 1670:1 1676:3 1679:1 1681:1 1733:1 1741:2 1774:1 1817:1 1841:2 1847:2 1853:2 1885:1 1898:2 1945:1}\n'
tp71
a(S't # 70 * 45\n'
S'v 0 8\nv 1 12\n'
S'v 1 12\n'
S'e 0 1 1\n'
S'e 0 1 1\n'
S' {230:1 1026:1 1070:1 1096:1 1102:1 1107:1 1124:3 1153:1 1186:1 1212:1 1250:1 1251:1 1252:1 1274:1 1276:1 1284:1 1300:1 1328:1 1348:1 1363:2 1404:1 1405:1 1431:1 1448:1 1463:1 1464:1 1476:2 1479:1 1498:1 1518:1 1534:1 1552:1 1557:1 1583:1 1586:1 1589:1 1678:1 1707:1 1711:1 1741:2 1762:1 1763:1 1898:1 1908:1 1940:1}\n'
tp72
a(S't # 71 * 20\n'
S'v 0 1\nv 1 3\n'
S'v 1 3\n'
S'e 0 1 0\n'
S'e 0 1 0\n'
S' {122:1 201:1 1066:1 1079:1 1112:1 1113:1 1172:1 1215:1 1279:1 1339:1 1381:1 1510:1 1550:1 1601:1 1608:1 1740:1 1787:1 1801:1 1841:1 1898:1}\n'
tp73
a(S't # 72 * 20\n'
S'v 0 1\nv 1 7\n'
S'v 1 7\n'
S'e 0 1 0\n'
S'e 0 1 0\n'
S' {184:1 559:2 842:1 947:1 1026:1 1183:1 1212:2 1296:1 1331:1 1408:1 1427:1 1485:1 1497:1 1599:1 1611:1 1647:1 1766:2 1800:1 1867:1 1900:1}\n'
tp74
a(S't # 73 * 86\n'
S'v 0 4\nv 1 11\nv 2 11\n'
S'v 2 11\n'
S'e 0 1 3\ne 1 2 3\n'
S'e 1 2 3\n'
S' {6:1 13:2 15:2 73:1 78:1 83:3 84:2 111:1 127:1 128:6 132:1 147:5 188:1 208:14 226:1 240:2 243:2 247:7 285:8 288:8 308:5 316:6 334:3 338:5 350:5 352:11 362:1 374:1 385:10 410:3 427:3 437:2 454:5 483:3 487:13 490:4 492:3 528:9 529:4 530:1 588:6 628:2 640:1 651:3 660:6 690:1 694:4 698:2 711:2 725:2 728:2 730:1 745:2 761:1 796:6 798:34 801:3 805:6 810:9 854:1 858:1 880:2 892:5 911:3 919:1 923:2 936:3 977:1 981:6 993:2 1048:1 1094:4 1245:1 1301:1 1313:1 1455:1 1530:4 1531:2 1541:1 1591:1 1697:2 1719:1 1758:1 1878:2 1908:13 1926:2}\n'
tp75
a(S't # 74 * 50\n'
S'v 0 5\nv 1 13\n'
S'v 1 13\n'
S'e 0 1 0\n'
S'e 0 1 0\n'
S' {23:1 27:1 388:1 417:1 523:2 598:1 806:1 826:1 889:1 908:1 909:1 958:1 999:1 1019:1 1049:1 1097:1 1229:1 1236:1 1250:1 1253:1 1255:1 1301:2 1357:1 1388:1 1390:1 1432:1 1465:1 1482:1 1488:1 1516:1 1538:1 1546:1 1560:1 1591:1 1617:1 1625:1 1634:1 1705:1 1719:1 1722:2 1734:1 1751:1 1762:1 1767:1 1782:1 1808:2 1814:2 1866:1 1911:1 1953:1}\n'
tp76
a.I75
.